	.file	"tests.cpp"
	.text
.Ltext0:
	.section	.text._ZNSt11char_traitsIcE6lengthEPKc,"axG",@progbits,_ZNSt11char_traitsIcE6lengthEPKc,comdat
	.weak	_ZNSt11char_traitsIcE6lengthEPKc
	.type	_ZNSt11char_traitsIcE6lengthEPKc, @function
_ZNSt11char_traitsIcE6lengthEPKc:
.LASANPC402:
.LFB402:
	.file 1 "/usr/include/c++/9/bits/char_traits.h"
	.loc 1 329 7
	.cfi_startproc
	endbr64
	pushq	%rbp
	.cfi_def_cfa_offset 16
	.cfi_offset 6, -16
	movq	%rsp, %rbp
	.cfi_def_cfa_register 6
	subq	$32, %rsp
	movq	%rdi, -24(%rbp)
	movq	-24(%rbp), %rax
	movq	%rax, -8(%rbp)
.LBB4:
.LBB5:
	.loc 1 236 46
	movl	$0, %eax
.LBE5:
.LBE4:
	.loc 1 332 2
	testb	%al, %al
	je	.L3
	.loc 1 333 52
	movq	-24(%rbp), %rax
	movq	%rax, %rdi
	call	_ZN9__gnu_cxx11char_traitsIcE6lengthEPKc
	.loc 1 333 56
	jmp	.L4
.L3:
	.loc 1 335 25
	cmpq	$0, -24(%rbp)
	jne	.L5
	leaq	.Lubsan_data325(%rip), %rdi
	call	__ubsan_handle_nonnull_arg@PLT
.L5:
	movq	-24(%rbp), %rax
	movq	%rax, %rdi
	call	strlen@PLT
	.loc 1 335 29
	nop
.L4:
	.loc 1 336 7
	leave
	.cfi_def_cfa 7, 8
	ret
	.cfi_endproc
.LFE402:
	.size	_ZNSt11char_traitsIcE6lengthEPKc, .-_ZNSt11char_traitsIcE6lengthEPKc
	.bss
	.align 32
	.type	_ZStL8__ioinit, @object
	.size	_ZStL8__ioinit, 1
_ZStL8__ioinit:
	.zero	64
	.section	.rodata
	.align 32
	.type	_ZL9TILE_OPEN, @object
	.size	_ZL9TILE_OPEN, 1
_ZL9TILE_OPEN:
	.byte	45
	.zero	63
	.align 32
	.type	_ZL11TILE_PLAYER, @object
	.size	_ZL11TILE_PLAYER, 1
_ZL11TILE_PLAYER:
	.byte	111
	.zero	63
	.align 32
	.type	_ZL13TILE_TREASURE, @object
	.size	_ZL13TILE_TREASURE, 1
_ZL13TILE_TREASURE:
	.byte	36
	.zero	63
	.align 32
	.type	_ZL11TILE_AMULET, @object
	.size	_ZL11TILE_AMULET, 1
_ZL11TILE_AMULET:
	.byte	64
	.zero	63
	.align 32
	.type	_ZL12TILE_MONSTER, @object
	.size	_ZL12TILE_MONSTER, 1
_ZL12TILE_MONSTER:
	.byte	77
	.zero	63
	.align 32
	.type	_ZL11TILE_PILLAR, @object
	.size	_ZL11TILE_PILLAR, 1
_ZL11TILE_PILLAR:
	.byte	43
	.zero	63
	.align 32
	.type	_ZL9TILE_DOOR, @object
	.size	_ZL9TILE_DOOR, 1
_ZL9TILE_DOOR:
	.byte	63
	.zero	63
	.align 32
	.type	_ZL9TILE_EXIT, @object
	.size	_ZL9TILE_EXIT, 1
_ZL9TILE_EXIT:
	.byte	33
	.zero	63
	.align 32
	.type	_ZL11STATUS_STAY, @object
	.size	_ZL11STATUS_STAY, 4
_ZL11STATUS_STAY:
	.zero	4
	.zero	60
	.align 32
	.type	_ZL11STATUS_MOVE, @object
	.size	_ZL11STATUS_MOVE, 4
_ZL11STATUS_MOVE:
	.long	1
	.zero	60
	.align 32
	.type	_ZL15STATUS_TREASURE, @object
	.size	_ZL15STATUS_TREASURE, 4
_ZL15STATUS_TREASURE:
	.long	2
	.zero	60
	.align 32
	.type	_ZL13STATUS_AMULET, @object
	.size	_ZL13STATUS_AMULET, 4
_ZL13STATUS_AMULET:
	.long	3
	.zero	60
	.align 32
	.type	_ZL12STATUS_LEAVE, @object
	.size	_ZL12STATUS_LEAVE, 4
_ZL12STATUS_LEAVE:
	.long	4
	.zero	60
	.align 32
	.type	_ZL13STATUS_ESCAPE, @object
	.size	_ZL13STATUS_ESCAPE, 4
_ZL13STATUS_ESCAPE:
	.long	5
	.zero	60
	.align 32
	.type	_ZL10INPUT_QUIT, @object
	.size	_ZL10INPUT_QUIT, 1
_ZL10INPUT_QUIT:
	.byte	113
	.zero	63
	.align 32
	.type	_ZL10INPUT_STAY, @object
	.size	_ZL10INPUT_STAY, 1
_ZL10INPUT_STAY:
	.byte	101
	.zero	63
	.align 32
	.type	_ZL7MOVE_UP, @object
	.size	_ZL7MOVE_UP, 1
_ZL7MOVE_UP:
	.byte	119
	.zero	63
	.align 32
	.type	_ZL9MOVE_LEFT, @object
	.size	_ZL9MOVE_LEFT, 1
_ZL9MOVE_LEFT:
	.byte	97
	.zero	63
	.align 32
	.type	_ZL9MOVE_DOWN, @object
	.size	_ZL9MOVE_DOWN, 1
_ZL9MOVE_DOWN:
	.byte	115
	.zero	63
	.align 32
	.type	_ZL10MOVE_RIGHT, @object
	.size	_ZL10MOVE_RIGHT, 1
_ZL10MOVE_RIGHT:
	.byte	100
	.zero	63
	.align 32
.LC0:
	.string	"tests.cpp"
	.zero	54
	.section	.data.rel.local,"aw"
	.align 32
	.type	.Lubsan_data326, @object
	.size	.Lubsan_data326, 16
.Lubsan_data326:
	.quad	.LC0
	.long	16
	.long	29
	.zero	48
	.data
	.align 32
	.type	.Lubsan_type1, @object
	.size	.Lubsan_type1, 13
.Lubsan_type1:
	.value	-1
	.value	0
	.string	"'char *'"
	.zero	51
	.section	.data.rel.local
	.align 32
	.type	.Lubsan_data327, @object
	.size	.Lubsan_data327, 32
.Lubsan_data327:
	.quad	.LC0
	.long	16
	.long	29
	.quad	.Lubsan_type1
	.byte	3
	.byte	0
	.zero	6
	.zero	32
	.align 32
	.type	.Lubsan_data328, @object
	.size	.Lubsan_data328, 16
.Lubsan_data328:
	.quad	.LC0
	.long	16
	.long	29
	.zero	48
	.align 32
	.type	.Lubsan_data329, @object
	.size	.Lubsan_data329, 32
.Lubsan_data329:
	.quad	.LC0
	.long	16
	.long	29
	.quad	.Lubsan_type1
	.byte	3
	.byte	0
	.zero	6
	.zero	32
	.globl	__asan_stack_malloc_1
	.section	.rodata
	.align 8
.LC1:
	.string	"3 32 4 8 maxRow:7 48 4 8 maxCol:8 64 12 8 player:9"
	.data
	.align 32
	.type	.Lubsan_type2, @object
	.size	.Lubsan_type2, 10
.Lubsan_type2:
	.value	0
	.value	11
	.string	"'int'"
	.zero	54
	.section	.data.rel.local
	.align 32
	.type	.Lubsan_data330, @object
	.size	.Lubsan_data330, 24
.Lubsan_data330:
	.quad	.LC0
	.long	15
	.long	9
	.quad	.Lubsan_type2
	.zero	40
	.text
	.globl	_Z12fetusDeletusRKNSt7__cxx1112basic_stringIcSt11char_traitsIcESaIcEEE
	.type	_Z12fetusDeletusRKNSt7__cxx1112basic_stringIcSt11char_traitsIcESaIcEEE, @function
_Z12fetusDeletusRKNSt7__cxx1112basic_stringIcSt11char_traitsIcESaIcEEE:
.LASANPC1823:
.LFB1823:
	.file 2 "tests.cpp"
	.loc 2 6 47
	.cfi_startproc
	endbr64
	pushq	%rbp
	.cfi_def_cfa_offset 16
	.cfi_offset 6, -16
	movq	%rsp, %rbp
	.cfi_def_cfa_register 6
	pushq	%r15
	pushq	%r14
	pushq	%r13
	pushq	%r12
	pushq	%rbx
	subq	$184, %rsp
	.cfi_offset 15, -24
	.cfi_offset 14, -32
	.cfi_offset 13, -40
	.cfi_offset 12, -48
	.cfi_offset 3, -56
	movq	%rdi, -216(%rbp)
	leaq	-176(%rbp), %rbx
	movq	%rbx, %r15
	cmpl	$0, __asan_option_detect_stack_use_after_return(%rip)
	je	.L6
	movl	$96, %edi
	call	__asan_stack_malloc_1@PLT
.LVL0:
	testq	%rax, %rax
	je	.L6
	movq	%rax, %rbx
.L6:
	leaq	128(%rbx), %rax
	movq	%rax, %r12
	movq	$1102416563, (%rbx)
	leaq	.LC1(%rip), %rax
	movq	%rax, 8(%rbx)
	leaq	.LASANPC1823(%rip), %rax
	movq	%rax, 16(%rbx)
	movq	%rbx, %r13
	shrq	$3, %r13
	movl	$-235802127, 2147450880(%r13)
	movl	$-234556924, 2147450884(%r13)
	movl	$-202177536, 2147450888(%r13)
	.loc 2 6 47
	movq	%fs:40, %rax
	movq	%rax, -56(%rbp)
	xorl	%eax, %eax
	.loc 2 10 27
	leaq	-64(%r12), %rcx
	leaq	-80(%r12), %rdx
	leaq	-96(%r12), %rsi
	movq	-216(%rbp), %rax
	movq	%rax, %rdi
	call	_Z9loadLevelRKNSt7__cxx1112basic_stringIcSt11char_traitsIcESaIcEEERiS7_R6Player@PLT
	movq	%rax, -184(%rbp)
	.loc 2 11 40
	leaq	-80(%r12), %rax
	movq	%rax, %rdx
	movq	%rdx, %rax
	shrq	$3, %rax
	addq	$2147450880, %rax
	movzbl	(%rax), %eax
	testb	%al, %al
	setne	%cl
	cmpb	$3, %al
	setle	%al
	andl	%ecx, %eax
	testb	%al, %al
	je	.L10
	movq	%rdx, %rdi
	call	__asan_report_load4@PLT
.L10:
	.loc 2 11 40 is_stmt 0 discriminator 1
	movl	-80(%r12), %edx
	leaq	-96(%r12), %rax
	movq	%rax, %rcx
	movq	%rcx, %rax
	shrq	$3, %rax
	addq	$2147450880, %rax
	movzbl	(%rax), %eax
	testb	%al, %al
	setne	%sil
	cmpb	$3, %al
	setle	%al
	andl	%esi, %eax
	testb	%al, %al
	je	.L11
	.loc 2 11 40
	movq	%rcx, %rdi
	call	__asan_report_load4@PLT
.L11:
	.loc 2 11 40 discriminator 1
	movl	-96(%r12), %esi
	leaq	-64(%r12), %rcx
	movq	-184(%rbp), %rax
	movq	%rax, %rdi
	call	_Z15doMonsterAttackPPciiRK6Player@PLT
	movb	%al, -193(%rbp)
.LBB6:
	.loc 2 14 5 is_stmt 1 discriminator 1
	cmpq	$0, -184(%rbp)
	je	.L12
.LBB7:
.LBB8:
	.loc 2 15 18
	movl	$0, -192(%rbp)
.L30:
	.loc 2 15 31 discriminator 1
	leaq	-96(%r12), %rax
	movq	%rax, %rdx
	movq	%rdx, %rax
	shrq	$3, %rax
	addq	$2147450880, %rax
	movzbl	(%rax), %eax
	testb	%al, %al
	setne	%cl
	cmpb	$3, %al
	setle	%al
	andl	%ecx, %eax
	testb	%al, %al
	je	.L13
	.loc 2 15 31 is_stmt 0
	movq	%rdx, %rdi
	call	__asan_report_load4@PLT
.L13:
	.loc 2 15 31 discriminator 1
	movl	-96(%r12), %eax
	cmpl	%eax, -192(%rbp)
	jge	.L14
	.loc 2 16 26 is_stmt 1
	movl	-192(%rbp), %eax
	cltq
	.loc 2 16 29
	leaq	0(,%rax,8), %r14
	movq	-184(%rbp), %rdx
	leaq	(%rdx,%r14), %rax
	movq	%r14, %rcx
	notq	%rcx
	shrq	$63, %rcx
	testb	%cl, %cl
	je	.L15
	cmpq	%rdx, %rax
	jnb	.L16
.L17:
	movq	-184(%rbp), %rcx
	movq	%rax, %rdx
	movq	%rcx, %rsi
	leaq	.Lubsan_data326(%rip), %rdi
	call	__ubsan_handle_pointer_overflow@PLT
	jmp	.L16
.L15:
	cmpq	%rdx, %rax
	ja	.L17
.L16:
	movq	-184(%rbp), %rax
	addq	%rax, %r14
	movq	%r14, %rax
	testq	%r14, %r14
	je	.L18
	movq	%rax, %rdx
	andl	$7, %edx
	testq	%rdx, %rdx
	je	.L19
.L18:
	movq	%rax, %rsi
	leaq	.Lubsan_data327(%rip), %rdi
	call	__ubsan_handle_type_mismatch_v1@PLT
.L19:
	movq	%r14, %rax
	movq	%rax, %rdx
	shrq	$3, %rdx
	addq	$2147450880, %rdx
	movzbl	(%rdx), %edx
	testb	%dl, %dl
	je	.L20
	movq	%rax, %rdi
	call	__asan_report_load8@PLT
.L20:
	movq	(%r14), %rax
	.loc 2 16 30
	testq	%rax, %rax
	je	.L21
	.loc 2 16 26 discriminator 1
	movl	-192(%rbp), %eax
	cltq
	.loc 2 16 29 discriminator 1
	leaq	0(,%rax,8), %r14
	movq	-184(%rbp), %rdx
	leaq	(%rdx,%r14), %rax
	movq	%r14, %rcx
	notq	%rcx
	shrq	$63, %rcx
	testb	%cl, %cl
	je	.L22
	.loc 2 16 29 is_stmt 0
	cmpq	%rdx, %rax
	jnb	.L23
.L24:
	movq	-184(%rbp), %rcx
	movq	%rax, %rdx
	movq	%rcx, %rsi
	leaq	.Lubsan_data328(%rip), %rdi
	call	__ubsan_handle_pointer_overflow@PLT
	jmp	.L23
.L22:
	.loc 2 16 29 discriminator 1
	cmpq	%rdx, %rax
	ja	.L24
.L23:
	movq	-184(%rbp), %rax
	addq	%rax, %r14
	movq	%r14, %rax
	testq	%r14, %r14
	je	.L25
	movq	%rax, %rdx
	andl	$7, %edx
	testq	%rdx, %rdx
	je	.L26
.L25:
	.loc 2 16 29
	movq	%rax, %rsi
	leaq	.Lubsan_data329(%rip), %rdi
	call	__ubsan_handle_type_mismatch_v1@PLT
.L26:
	.loc 2 16 29 discriminator 1
	movq	%r14, %rax
	movq	%rax, %rdx
	shrq	$3, %rdx
	addq	$2147450880, %rdx
	movzbl	(%rdx), %edx
	testb	%dl, %dl
	je	.L27
	.loc 2 16 29
	movq	%rax, %rdi
	call	__asan_report_load8@PLT
.L27:
	.loc 2 16 29 discriminator 1
	movq	(%r14), %rax
	movq	%rax, %rdi
	call	_ZdaPv@PLT
.L21:
	.loc 2 15 9 is_stmt 1 discriminator 2
	movl	-192(%rbp), %eax
	addl	$1, %eax
	movl	%eax, %r14d
	jno	.L28
	movl	-192(%rbp), %eax
	cltq
	movl	$1, %edx
	movq	%rax, %rsi
	leaq	.Lubsan_data330(%rip), %rdi
	call	__ubsan_handle_add_overflow@PLT
.L28:
	movl	%r14d, -192(%rbp)
	jmp	.L30
.L14:
.LBE8:
	.loc 2 18 21
	cmpq	$0, -184(%rbp)
	je	.L12
	.loc 2 18 18 discriminator 1
	movq	-184(%rbp), %rax
	movq	%rax, %rdi
	call	_ZdaPv@PLT
.L12:
.LBE7:
.LBE6:
.LBB9:
	.loc 2 21 5
	cmpb	$0, -193(%rbp)
	je	.L33
.LBB10:
	.loc 2 22 13
	movl	$0, -188(%rbp)
.L33:
.LBE10:
.LBE9:
	.loc 2 25 1
	nop
	.loc 2 6 47
	cmpq	%rbx, %r15
	je	.L7
	movq	$1172321806, (%rbx)
	movabsq	$-723401728380766731, %rax
	movq	%rax, 2147450880(%r13)
	movl	$-168430091, 2147450888(%r13)
	movq	120(%rbx), %rax
	movb	$0, (%rax)
	jmp	.L8
.L7:
	movq	$0, 2147450880(%r13)
	movl	$0, 2147450888(%r13)
.L8:
	.loc 2 25 1
	movq	-56(%rbp), %rax
	xorq	%fs:40, %rax
	je	.L32
	call	__stack_chk_fail@PLT
.L32:
	addq	$184, %rsp
	popq	%rbx
	popq	%r12
	popq	%r13
	popq	%r14
	popq	%r15
	popq	%rbp
	.cfi_def_cfa 7, 8
	ret
	.cfi_endproc
.LFE1823:
	.size	_Z12fetusDeletusRKNSt7__cxx1112basic_stringIcSt11char_traitsIcESaIcEEE, .-_Z12fetusDeletusRKNSt7__cxx1112basic_stringIcSt11char_traitsIcESaIcEEE
	.data
	.align 32
	.type	.Lubsan_type3, @object
	.size	.Lubsan_type3, 20
.Lubsan_type3:
	.value	-1
	.value	0
	.string	"'basic_ostream'"
	.zero	44
	.section	.data.rel,"aw"
	.align 32
	.type	.Lubsan_data331, @object
	.size	.Lubsan_data331, 40
.Lubsan_data331:
	.quad	.LC0
	.long	50
	.long	11
	.quad	.Lubsan_type3
	.quad	_ZTISo
	.byte	4
	.zero	7
	.zero	56
	.data
	.align 32
	.type	.Lubsan_type4, @object
	.size	.Lubsan_type4, 27
.Lubsan_type4:
	.value	-1
	.value	0
	.string	"'struct basic_ostream'"
	.zero	37
	.section	.data.rel.local
	.align 32
	.type	.Lubsan_data332, @object
	.size	.Lubsan_data332, 32
.Lubsan_data332:
	.quad	.LC0
	.long	50
	.long	17
	.quad	.Lubsan_type4
	.byte	3
	.byte	2
	.zero	6
	.zero	32
	.align 32
	.type	.Lubsan_data333, @object
	.size	.Lubsan_data333, 32
.Lubsan_data333:
	.quad	.LC0
	.long	50
	.long	44
	.quad	.Lubsan_type4
	.byte	3
	.byte	4
	.zero	6
	.zero	32
	.align 32
	.type	.Lubsan_data334, @object
	.size	.Lubsan_data334, 32
.Lubsan_data334:
	.quad	.LC0
	.long	50
	.long	44
	.quad	.Lubsan_type4
	.byte	3
	.byte	3
	.zero	6
	.zero	32
	.section	.data.rel
	.align 32
	.type	.Lubsan_data335, @object
	.size	.Lubsan_data335, 40
.Lubsan_data335:
	.quad	.LC0
	.long	50
	.long	44
	.quad	.Lubsan_type3
	.quad	_ZTISo
	.byte	4
	.zero	7
	.zero	56
	.data
	.align 32
	.type	.Lubsan_type5, @object
	.size	.Lubsan_type5, 28
.Lubsan_type5:
	.value	-1
	.value	0
	.string	"'struct __ostream_type'"
	.zero	36
	.section	.data.rel.local
	.align 32
	.type	.Lubsan_data336, @object
	.size	.Lubsan_data336, 32
.Lubsan_data336:
	.quad	.LC0
	.long	50
	.long	50
	.quad	.Lubsan_type5
	.byte	3
	.byte	4
	.zero	6
	.zero	32
	.align 32
	.type	.Lubsan_data337, @object
	.size	.Lubsan_data337, 32
.Lubsan_data337:
	.quad	.LC0
	.long	50
	.long	50
	.quad	.Lubsan_type5
	.byte	3
	.byte	3
	.zero	6
	.zero	32
	.section	.data.rel
	.align 32
	.type	.Lubsan_data338, @object
	.size	.Lubsan_data338, 40
.Lubsan_data338:
	.quad	.LC0
	.long	50
	.long	50
	.quad	.Lubsan_type3
	.quad	_ZTISo
	.byte	4
	.zero	7
	.zero	56
	.align 32
	.type	.Lubsan_data339, @object
	.size	.Lubsan_data339, 40
.Lubsan_data339:
	.quad	.LC0
	.long	51
	.long	13
	.quad	.Lubsan_type3
	.quad	_ZTISo
	.byte	4
	.zero	7
	.zero	56
	.section	.data.rel.local
	.align 32
	.type	.Lubsan_data340, @object
	.size	.Lubsan_data340, 32
.Lubsan_data340:
	.quad	.LC0
	.long	51
	.long	19
	.quad	.Lubsan_type4
	.byte	3
	.byte	2
	.zero	6
	.zero	32
	.align 32
	.type	.Lubsan_data341, @object
	.size	.Lubsan_data341, 32
.Lubsan_data341:
	.quad	.LC0
	.long	51
	.long	53
	.quad	.Lubsan_type4
	.byte	3
	.byte	4
	.zero	6
	.zero	32
	.align 32
	.type	.Lubsan_data342, @object
	.size	.Lubsan_data342, 32
.Lubsan_data342:
	.quad	.LC0
	.long	51
	.long	53
	.quad	.Lubsan_type4
	.byte	3
	.byte	3
	.zero	6
	.zero	32
	.section	.data.rel
	.align 32
	.type	.Lubsan_data343, @object
	.size	.Lubsan_data343, 40
.Lubsan_data343:
	.quad	.LC0
	.long	51
	.long	53
	.quad	.Lubsan_type3
	.quad	_ZTISo
	.byte	4
	.zero	7
	.zero	56
	.data
	.align 32
	.type	.Lubsan_type6, @object
	.size	.Lubsan_type6, 26
.Lubsan_type6:
	.value	-1
	.value	0
	.string	"'const struct string'"
	.zero	38
	.section	.data.rel.local
	.align 32
	.type	.Lubsan_data344, @object
	.size	.Lubsan_data344, 32
.Lubsan_data344:
	.quad	.LC0
	.long	52
	.long	29
	.quad	.Lubsan_type6
	.byte	3
	.byte	2
	.zero	6
	.zero	32
	.align 32
	.type	.Lubsan_data345, @object
	.size	.Lubsan_data345, 16
.Lubsan_data345:
	.quad	.LC0
	.long	167
	.long	31
	.zero	48
	.align 32
	.type	.Lubsan_data346, @object
	.size	.Lubsan_data346, 32
.Lubsan_data346:
	.quad	.LC0
	.long	167
	.long	31
	.quad	.Lubsan_type1
	.byte	3
	.byte	0
	.zero	6
	.zero	32
	.align 32
	.type	.Lubsan_data347, @object
	.size	.Lubsan_data347, 16
.Lubsan_data347:
	.quad	.LC0
	.long	167
	.long	31
	.zero	48
	.align 32
	.type	.Lubsan_data348, @object
	.size	.Lubsan_data348, 32
.Lubsan_data348:
	.quad	.LC0
	.long	167
	.long	31
	.quad	.Lubsan_type1
	.byte	3
	.byte	0
	.zero	6
	.zero	32
	.section	.data.rel
	.align 32
	.type	.Lubsan_data349, @object
	.size	.Lubsan_data349, 40
.Lubsan_data349:
	.quad	.LC0
	.long	172
	.long	11
	.quad	.Lubsan_type3
	.quad	_ZTISo
	.byte	4
	.zero	7
	.zero	56
	.section	.data.rel.local
	.align 32
	.type	.Lubsan_data350, @object
	.size	.Lubsan_data350, 32
.Lubsan_data350:
	.quad	.LC0
	.long	172
	.long	17
	.quad	.Lubsan_type4
	.byte	3
	.byte	2
	.zero	6
	.zero	32
	.align 32
	.type	.Lubsan_data351, @object
	.size	.Lubsan_data351, 32
.Lubsan_data351:
	.quad	.LC0
	.long	172
	.long	57
	.quad	.Lubsan_type4
	.byte	3
	.byte	4
	.zero	6
	.zero	32
	.align 32
	.type	.Lubsan_data352, @object
	.size	.Lubsan_data352, 32
.Lubsan_data352:
	.quad	.LC0
	.long	172
	.long	57
	.quad	.Lubsan_type4
	.byte	3
	.byte	3
	.zero	6
	.zero	32
	.section	.data.rel
	.align 32
	.type	.Lubsan_data353, @object
	.size	.Lubsan_data353, 40
.Lubsan_data353:
	.quad	.LC0
	.long	172
	.long	57
	.quad	.Lubsan_type3
	.quad	_ZTISo
	.byte	4
	.zero	7
	.zero	56
	.section	.data.rel.local
	.align 32
	.type	.Lubsan_data354, @object
	.size	.Lubsan_data354, 32
.Lubsan_data354:
	.quad	.LC0
	.long	173
	.long	22
	.quad	.Lubsan_type6
	.byte	3
	.byte	2
	.zero	6
	.zero	32
	.section	.data.rel
	.align 32
	.type	.Lubsan_data355, @object
	.size	.Lubsan_data355, 40
.Lubsan_data355:
	.quad	.LC0
	.long	174
	.long	11
	.quad	.Lubsan_type3
	.quad	_ZTISo
	.byte	4
	.zero	7
	.zero	56
	.section	.data.rel.local
	.align 32
	.type	.Lubsan_data356, @object
	.size	.Lubsan_data356, 32
.Lubsan_data356:
	.quad	.LC0
	.long	174
	.long	17
	.quad	.Lubsan_type4
	.byte	3
	.byte	2
	.zero	6
	.zero	32
	.align 32
	.type	.Lubsan_data357, @object
	.size	.Lubsan_data357, 32
.Lubsan_data357:
	.quad	.LC0
	.long	174
	.long	58
	.quad	.Lubsan_type4
	.byte	3
	.byte	4
	.zero	6
	.zero	32
	.align 32
	.type	.Lubsan_data358, @object
	.size	.Lubsan_data358, 32
.Lubsan_data358:
	.quad	.LC0
	.long	174
	.long	58
	.quad	.Lubsan_type4
	.byte	3
	.byte	3
	.zero	6
	.zero	32
	.section	.data.rel
	.align 32
	.type	.Lubsan_data359, @object
	.size	.Lubsan_data359, 40
.Lubsan_data359:
	.quad	.LC0
	.long	174
	.long	58
	.quad	.Lubsan_type3
	.quad	_ZTISo
	.byte	4
	.zero	7
	.zero	56
	.section	.data.rel.local
	.align 32
	.type	.Lubsan_data360, @object
	.size	.Lubsan_data360, 32
.Lubsan_data360:
	.quad	.LC0
	.long	175
	.long	22
	.quad	.Lubsan_type6
	.byte	3
	.byte	2
	.zero	6
	.zero	32
	.section	.data.rel
	.align 32
	.type	.Lubsan_data361, @object
	.size	.Lubsan_data361, 40
.Lubsan_data361:
	.quad	.LC0
	.long	176
	.long	11
	.quad	.Lubsan_type3
	.quad	_ZTISo
	.byte	4
	.zero	7
	.zero	56
	.section	.data.rel.local
	.align 32
	.type	.Lubsan_data362, @object
	.size	.Lubsan_data362, 32
.Lubsan_data362:
	.quad	.LC0
	.long	176
	.long	17
	.quad	.Lubsan_type4
	.byte	3
	.byte	2
	.zero	6
	.zero	32
	.align 32
	.type	.Lubsan_data363, @object
	.size	.Lubsan_data363, 32
.Lubsan_data363:
	.quad	.LC0
	.long	176
	.long	51
	.quad	.Lubsan_type4
	.byte	3
	.byte	4
	.zero	6
	.zero	32
	.align 32
	.type	.Lubsan_data364, @object
	.size	.Lubsan_data364, 32
.Lubsan_data364:
	.quad	.LC0
	.long	176
	.long	51
	.quad	.Lubsan_type4
	.byte	3
	.byte	3
	.zero	6
	.zero	32
	.section	.data.rel
	.align 32
	.type	.Lubsan_data365, @object
	.size	.Lubsan_data365, 40
.Lubsan_data365:
	.quad	.LC0
	.long	176
	.long	51
	.quad	.Lubsan_type3
	.quad	_ZTISo
	.byte	4
	.zero	7
	.zero	56
	.section	.data.rel.local
	.align 32
	.type	.Lubsan_data366, @object
	.size	.Lubsan_data366, 32
.Lubsan_data366:
	.quad	.LC0
	.long	177
	.long	22
	.quad	.Lubsan_type6
	.byte	3
	.byte	2
	.zero	6
	.zero	32
	.section	.data.rel
	.align 32
	.type	.Lubsan_data367, @object
	.size	.Lubsan_data367, 40
.Lubsan_data367:
	.quad	.LC0
	.long	178
	.long	11
	.quad	.Lubsan_type3
	.quad	_ZTISo
	.byte	4
	.zero	7
	.zero	56
	.section	.data.rel.local
	.align 32
	.type	.Lubsan_data368, @object
	.size	.Lubsan_data368, 32
.Lubsan_data368:
	.quad	.LC0
	.long	178
	.long	17
	.quad	.Lubsan_type4
	.byte	3
	.byte	2
	.zero	6
	.zero	32
	.align 32
	.type	.Lubsan_data369, @object
	.size	.Lubsan_data369, 32
.Lubsan_data369:
	.quad	.LC0
	.long	178
	.long	58
	.quad	.Lubsan_type4
	.byte	3
	.byte	4
	.zero	6
	.zero	32
	.align 32
	.type	.Lubsan_data370, @object
	.size	.Lubsan_data370, 32
.Lubsan_data370:
	.quad	.LC0
	.long	178
	.long	58
	.quad	.Lubsan_type4
	.byte	3
	.byte	3
	.zero	6
	.zero	32
	.section	.data.rel
	.align 32
	.type	.Lubsan_data371, @object
	.size	.Lubsan_data371, 40
.Lubsan_data371:
	.quad	.LC0
	.long	178
	.long	58
	.quad	.Lubsan_type3
	.quad	_ZTISo
	.byte	4
	.zero	7
	.zero	56
	.section	.data.rel.local
	.align 32
	.type	.Lubsan_data372, @object
	.size	.Lubsan_data372, 32
.Lubsan_data372:
	.quad	.LC0
	.long	179
	.long	22
	.quad	.Lubsan_type6
	.byte	3
	.byte	2
	.zero	6
	.zero	32
	.section	.data.rel
	.align 32
	.type	.Lubsan_data373, @object
	.size	.Lubsan_data373, 40
.Lubsan_data373:
	.quad	.LC0
	.long	180
	.long	11
	.quad	.Lubsan_type3
	.quad	_ZTISo
	.byte	4
	.zero	7
	.zero	56
	.section	.data.rel.local
	.align 32
	.type	.Lubsan_data374, @object
	.size	.Lubsan_data374, 32
.Lubsan_data374:
	.quad	.LC0
	.long	180
	.long	17
	.quad	.Lubsan_type4
	.byte	3
	.byte	2
	.zero	6
	.zero	32
	.align 32
	.type	.Lubsan_data375, @object
	.size	.Lubsan_data375, 32
.Lubsan_data375:
	.quad	.LC0
	.long	180
	.long	51
	.quad	.Lubsan_type4
	.byte	3
	.byte	4
	.zero	6
	.zero	32
	.align 32
	.type	.Lubsan_data376, @object
	.size	.Lubsan_data376, 32
.Lubsan_data376:
	.quad	.LC0
	.long	180
	.long	51
	.quad	.Lubsan_type4
	.byte	3
	.byte	3
	.zero	6
	.zero	32
	.section	.data.rel
	.align 32
	.type	.Lubsan_data377, @object
	.size	.Lubsan_data377, 40
.Lubsan_data377:
	.quad	.LC0
	.long	180
	.long	51
	.quad	.Lubsan_type3
	.quad	_ZTISo
	.byte	4
	.zero	7
	.zero	56
	.section	.data.rel.local
	.align 32
	.type	.Lubsan_data378, @object
	.size	.Lubsan_data378, 32
.Lubsan_data378:
	.quad	.LC0
	.long	181
	.long	22
	.quad	.Lubsan_type6
	.byte	3
	.byte	2
	.zero	6
	.zero	32
	.section	.data.rel
	.align 32
	.type	.Lubsan_data379, @object
	.size	.Lubsan_data379, 40
.Lubsan_data379:
	.quad	.LC0
	.long	183
	.long	11
	.quad	.Lubsan_type3
	.quad	_ZTISo
	.byte	4
	.zero	7
	.zero	56
	.section	.data.rel.local
	.align 32
	.type	.Lubsan_data380, @object
	.size	.Lubsan_data380, 32
.Lubsan_data380:
	.quad	.LC0
	.long	183
	.long	17
	.quad	.Lubsan_type4
	.byte	3
	.byte	2
	.zero	6
	.zero	32
	.align 32
	.type	.Lubsan_data381, @object
	.size	.Lubsan_data381, 32
.Lubsan_data381:
	.quad	.LC0
	.long	183
	.long	66
	.quad	.Lubsan_type4
	.byte	3
	.byte	4
	.zero	6
	.zero	32
	.align 32
	.type	.Lubsan_data382, @object
	.size	.Lubsan_data382, 32
.Lubsan_data382:
	.quad	.LC0
	.long	183
	.long	66
	.quad	.Lubsan_type4
	.byte	3
	.byte	3
	.zero	6
	.zero	32
	.section	.data.rel
	.align 32
	.type	.Lubsan_data383, @object
	.size	.Lubsan_data383, 40
.Lubsan_data383:
	.quad	.LC0
	.long	183
	.long	66
	.quad	.Lubsan_type3
	.quad	_ZTISo
	.byte	4
	.zero	7
	.zero	56
	.section	.data.rel.local
	.align 32
	.type	.Lubsan_data384, @object
	.size	.Lubsan_data384, 32
.Lubsan_data384:
	.quad	.LC0
	.long	184
	.long	22
	.quad	.Lubsan_type6
	.byte	3
	.byte	2
	.zero	6
	.zero	32
	.section	.data.rel
	.align 32
	.type	.Lubsan_data385, @object
	.size	.Lubsan_data385, 40
.Lubsan_data385:
	.quad	.LC0
	.long	186
	.long	11
	.quad	.Lubsan_type3
	.quad	_ZTISo
	.byte	4
	.zero	7
	.zero	56
	.section	.data.rel.local
	.align 32
	.type	.Lubsan_data386, @object
	.size	.Lubsan_data386, 32
.Lubsan_data386:
	.quad	.LC0
	.long	186
	.long	17
	.quad	.Lubsan_type4
	.byte	3
	.byte	2
	.zero	6
	.zero	32
	.align 32
	.type	.Lubsan_data387, @object
	.size	.Lubsan_data387, 32
.Lubsan_data387:
	.quad	.LC0
	.long	186
	.long	62
	.quad	.Lubsan_type4
	.byte	3
	.byte	4
	.zero	6
	.zero	32
	.align 32
	.type	.Lubsan_data388, @object
	.size	.Lubsan_data388, 32
.Lubsan_data388:
	.quad	.LC0
	.long	186
	.long	62
	.quad	.Lubsan_type4
	.byte	3
	.byte	3
	.zero	6
	.zero	32
	.section	.data.rel
	.align 32
	.type	.Lubsan_data389, @object
	.size	.Lubsan_data389, 40
.Lubsan_data389:
	.quad	.LC0
	.long	186
	.long	62
	.quad	.Lubsan_type3
	.quad	_ZTISo
	.byte	4
	.zero	7
	.zero	56
	.section	.data.rel.local
	.align 32
	.type	.Lubsan_data390, @object
	.size	.Lubsan_data390, 32
.Lubsan_data390:
	.quad	.LC0
	.long	187
	.long	22
	.quad	.Lubsan_type6
	.byte	3
	.byte	2
	.zero	6
	.zero	32
	.section	.data.rel
	.align 32
	.type	.Lubsan_data391, @object
	.size	.Lubsan_data391, 40
.Lubsan_data391:
	.quad	.LC0
	.long	188
	.long	11
	.quad	.Lubsan_type3
	.quad	_ZTISo
	.byte	4
	.zero	7
	.zero	56
	.section	.data.rel.local
	.align 32
	.type	.Lubsan_data392, @object
	.size	.Lubsan_data392, 32
.Lubsan_data392:
	.quad	.LC0
	.long	188
	.long	17
	.quad	.Lubsan_type4
	.byte	3
	.byte	2
	.zero	6
	.zero	32
	.align 32
	.type	.Lubsan_data393, @object
	.size	.Lubsan_data393, 32
.Lubsan_data393:
	.quad	.LC0
	.long	188
	.long	55
	.quad	.Lubsan_type4
	.byte	3
	.byte	4
	.zero	6
	.zero	32
	.align 32
	.type	.Lubsan_data394, @object
	.size	.Lubsan_data394, 32
.Lubsan_data394:
	.quad	.LC0
	.long	188
	.long	55
	.quad	.Lubsan_type4
	.byte	3
	.byte	3
	.zero	6
	.zero	32
	.section	.data.rel
	.align 32
	.type	.Lubsan_data395, @object
	.size	.Lubsan_data395, 40
.Lubsan_data395:
	.quad	.LC0
	.long	188
	.long	55
	.quad	.Lubsan_type3
	.quad	_ZTISo
	.byte	4
	.zero	7
	.zero	56
	.section	.data.rel.local
	.align 32
	.type	.Lubsan_data396, @object
	.size	.Lubsan_data396, 32
.Lubsan_data396:
	.quad	.LC0
	.long	189
	.long	22
	.quad	.Lubsan_type6
	.byte	3
	.byte	2
	.zero	6
	.zero	32
	.section	.data.rel
	.align 32
	.type	.Lubsan_data397, @object
	.size	.Lubsan_data397, 40
.Lubsan_data397:
	.quad	.LC0
	.long	190
	.long	11
	.quad	.Lubsan_type3
	.quad	_ZTISo
	.byte	4
	.zero	7
	.zero	56
	.section	.data.rel.local
	.align 32
	.type	.Lubsan_data398, @object
	.size	.Lubsan_data398, 32
.Lubsan_data398:
	.quad	.LC0
	.long	190
	.long	17
	.quad	.Lubsan_type4
	.byte	3
	.byte	2
	.zero	6
	.zero	32
	.align 32
	.type	.Lubsan_data399, @object
	.size	.Lubsan_data399, 32
.Lubsan_data399:
	.quad	.LC0
	.long	190
	.long	71
	.quad	.Lubsan_type4
	.byte	3
	.byte	4
	.zero	6
	.zero	32
	.align 32
	.type	.Lubsan_data400, @object
	.size	.Lubsan_data400, 32
.Lubsan_data400:
	.quad	.LC0
	.long	190
	.long	71
	.quad	.Lubsan_type4
	.byte	3
	.byte	3
	.zero	6
	.zero	32
	.section	.data.rel
	.align 32
	.type	.Lubsan_data401, @object
	.size	.Lubsan_data401, 40
.Lubsan_data401:
	.quad	.LC0
	.long	190
	.long	71
	.quad	.Lubsan_type3
	.quad	_ZTISo
	.byte	4
	.zero	7
	.zero	56
	.section	.data.rel.local
	.align 32
	.type	.Lubsan_data402, @object
	.size	.Lubsan_data402, 32
.Lubsan_data402:
	.quad	.LC0
	.long	191
	.long	22
	.quad	.Lubsan_type6
	.byte	3
	.byte	2
	.zero	6
	.zero	32
	.section	.data.rel
	.align 32
	.type	.Lubsan_data403, @object
	.size	.Lubsan_data403, 40
.Lubsan_data403:
	.quad	.LC0
	.long	193
	.long	11
	.quad	.Lubsan_type3
	.quad	_ZTISo
	.byte	4
	.zero	7
	.zero	56
	.section	.data.rel.local
	.align 32
	.type	.Lubsan_data404, @object
	.size	.Lubsan_data404, 32
.Lubsan_data404:
	.quad	.LC0
	.long	193
	.long	17
	.quad	.Lubsan_type4
	.byte	3
	.byte	2
	.zero	6
	.zero	32
	.align 32
	.type	.Lubsan_data405, @object
	.size	.Lubsan_data405, 32
.Lubsan_data405:
	.quad	.LC0
	.long	193
	.long	62
	.quad	.Lubsan_type4
	.byte	3
	.byte	4
	.zero	6
	.zero	32
	.align 32
	.type	.Lubsan_data406, @object
	.size	.Lubsan_data406, 32
.Lubsan_data406:
	.quad	.LC0
	.long	193
	.long	62
	.quad	.Lubsan_type4
	.byte	3
	.byte	3
	.zero	6
	.zero	32
	.section	.data.rel
	.align 32
	.type	.Lubsan_data407, @object
	.size	.Lubsan_data407, 40
.Lubsan_data407:
	.quad	.LC0
	.long	193
	.long	62
	.quad	.Lubsan_type3
	.quad	_ZTISo
	.byte	4
	.zero	7
	.zero	56
	.section	.data.rel.local
	.align 32
	.type	.Lubsan_data408, @object
	.size	.Lubsan_data408, 32
.Lubsan_data408:
	.quad	.LC0
	.long	194
	.long	22
	.quad	.Lubsan_type6
	.byte	3
	.byte	2
	.zero	6
	.zero	32
	.section	.data.rel
	.align 32
	.type	.Lubsan_data409, @object
	.size	.Lubsan_data409, 40
.Lubsan_data409:
	.quad	.LC0
	.long	195
	.long	11
	.quad	.Lubsan_type3
	.quad	_ZTISo
	.byte	4
	.zero	7
	.zero	56
	.section	.data.rel.local
	.align 32
	.type	.Lubsan_data410, @object
	.size	.Lubsan_data410, 32
.Lubsan_data410:
	.quad	.LC0
	.long	195
	.long	17
	.quad	.Lubsan_type4
	.byte	3
	.byte	2
	.zero	6
	.zero	32
	.align 32
	.type	.Lubsan_data411, @object
	.size	.Lubsan_data411, 32
.Lubsan_data411:
	.quad	.LC0
	.long	195
	.long	55
	.quad	.Lubsan_type4
	.byte	3
	.byte	4
	.zero	6
	.zero	32
	.align 32
	.type	.Lubsan_data412, @object
	.size	.Lubsan_data412, 32
.Lubsan_data412:
	.quad	.LC0
	.long	195
	.long	55
	.quad	.Lubsan_type4
	.byte	3
	.byte	3
	.zero	6
	.zero	32
	.section	.data.rel
	.align 32
	.type	.Lubsan_data413, @object
	.size	.Lubsan_data413, 40
.Lubsan_data413:
	.quad	.LC0
	.long	195
	.long	55
	.quad	.Lubsan_type3
	.quad	_ZTISo
	.byte	4
	.zero	7
	.zero	56
	.section	.data.rel.local
	.align 32
	.type	.Lubsan_data414, @object
	.size	.Lubsan_data414, 32
.Lubsan_data414:
	.quad	.LC0
	.long	196
	.long	22
	.quad	.Lubsan_type6
	.byte	3
	.byte	2
	.zero	6
	.zero	32
	.section	.data.rel
	.align 32
	.type	.Lubsan_data415, @object
	.size	.Lubsan_data415, 40
.Lubsan_data415:
	.quad	.LC0
	.long	197
	.long	11
	.quad	.Lubsan_type3
	.quad	_ZTISo
	.byte	4
	.zero	7
	.zero	56
	.section	.data.rel.local
	.align 32
	.type	.Lubsan_data416, @object
	.size	.Lubsan_data416, 32
.Lubsan_data416:
	.quad	.LC0
	.long	197
	.long	17
	.quad	.Lubsan_type4
	.byte	3
	.byte	2
	.zero	6
	.zero	32
	.align 32
	.type	.Lubsan_data417, @object
	.size	.Lubsan_data417, 32
.Lubsan_data417:
	.quad	.LC0
	.long	197
	.long	71
	.quad	.Lubsan_type4
	.byte	3
	.byte	4
	.zero	6
	.zero	32
	.align 32
	.type	.Lubsan_data418, @object
	.size	.Lubsan_data418, 32
.Lubsan_data418:
	.quad	.LC0
	.long	197
	.long	71
	.quad	.Lubsan_type4
	.byte	3
	.byte	3
	.zero	6
	.zero	32
	.section	.data.rel
	.align 32
	.type	.Lubsan_data419, @object
	.size	.Lubsan_data419, 40
.Lubsan_data419:
	.quad	.LC0
	.long	197
	.long	71
	.quad	.Lubsan_type3
	.quad	_ZTISo
	.byte	4
	.zero	7
	.zero	56
	.section	.data.rel.local
	.align 32
	.type	.Lubsan_data420, @object
	.size	.Lubsan_data420, 32
.Lubsan_data420:
	.quad	.LC0
	.long	198
	.long	22
	.quad	.Lubsan_type6
	.byte	3
	.byte	2
	.zero	6
	.zero	32
	.section	.data.rel
	.align 32
	.type	.Lubsan_data421, @object
	.size	.Lubsan_data421, 40
.Lubsan_data421:
	.quad	.LC0
	.long	200
	.long	11
	.quad	.Lubsan_type3
	.quad	_ZTISo
	.byte	4
	.zero	7
	.zero	56
	.section	.data.rel.local
	.align 32
	.type	.Lubsan_data422, @object
	.size	.Lubsan_data422, 32
.Lubsan_data422:
	.quad	.LC0
	.long	200
	.long	17
	.quad	.Lubsan_type4
	.byte	3
	.byte	2
	.zero	6
	.zero	32
	.align 32
	.type	.Lubsan_data423, @object
	.size	.Lubsan_data423, 32
.Lubsan_data423:
	.quad	.LC0
	.long	200
	.long	65
	.quad	.Lubsan_type4
	.byte	3
	.byte	4
	.zero	6
	.zero	32
	.align 32
	.type	.Lubsan_data424, @object
	.size	.Lubsan_data424, 32
.Lubsan_data424:
	.quad	.LC0
	.long	200
	.long	65
	.quad	.Lubsan_type4
	.byte	3
	.byte	3
	.zero	6
	.zero	32
	.section	.data.rel
	.align 32
	.type	.Lubsan_data425, @object
	.size	.Lubsan_data425, 40
.Lubsan_data425:
	.quad	.LC0
	.long	200
	.long	65
	.quad	.Lubsan_type3
	.quad	_ZTISo
	.byte	4
	.zero	7
	.zero	56
	.section	.data.rel.local
	.align 32
	.type	.Lubsan_data426, @object
	.size	.Lubsan_data426, 32
.Lubsan_data426:
	.quad	.LC0
	.long	201
	.long	22
	.quad	.Lubsan_type6
	.byte	3
	.byte	2
	.zero	6
	.zero	32
	.section	.data.rel
	.align 32
	.type	.Lubsan_data427, @object
	.size	.Lubsan_data427, 40
.Lubsan_data427:
	.quad	.LC0
	.long	202
	.long	11
	.quad	.Lubsan_type3
	.quad	_ZTISo
	.byte	4
	.zero	7
	.zero	56
	.section	.data.rel.local
	.align 32
	.type	.Lubsan_data428, @object
	.size	.Lubsan_data428, 32
.Lubsan_data428:
	.quad	.LC0
	.long	202
	.long	17
	.quad	.Lubsan_type4
	.byte	3
	.byte	2
	.zero	6
	.zero	32
	.align 32
	.type	.Lubsan_data429, @object
	.size	.Lubsan_data429, 32
.Lubsan_data429:
	.quad	.LC0
	.long	202
	.long	62
	.quad	.Lubsan_type4
	.byte	3
	.byte	4
	.zero	6
	.zero	32
	.align 32
	.type	.Lubsan_data430, @object
	.size	.Lubsan_data430, 32
.Lubsan_data430:
	.quad	.LC0
	.long	202
	.long	62
	.quad	.Lubsan_type4
	.byte	3
	.byte	3
	.zero	6
	.zero	32
	.section	.data.rel
	.align 32
	.type	.Lubsan_data431, @object
	.size	.Lubsan_data431, 40
.Lubsan_data431:
	.quad	.LC0
	.long	202
	.long	62
	.quad	.Lubsan_type3
	.quad	_ZTISo
	.byte	4
	.zero	7
	.zero	56
	.section	.data.rel.local
	.align 32
	.type	.Lubsan_data432, @object
	.size	.Lubsan_data432, 32
.Lubsan_data432:
	.quad	.LC0
	.long	203
	.long	22
	.quad	.Lubsan_type6
	.byte	3
	.byte	2
	.zero	6
	.zero	32
	.section	.data.rel
	.align 32
	.type	.Lubsan_data433, @object
	.size	.Lubsan_data433, 40
.Lubsan_data433:
	.quad	.LC0
	.long	204
	.long	11
	.quad	.Lubsan_type3
	.quad	_ZTISo
	.byte	4
	.zero	7
	.zero	56
	.section	.data.rel.local
	.align 32
	.type	.Lubsan_data434, @object
	.size	.Lubsan_data434, 32
.Lubsan_data434:
	.quad	.LC0
	.long	204
	.long	17
	.quad	.Lubsan_type4
	.byte	3
	.byte	2
	.zero	6
	.zero	32
	.align 32
	.type	.Lubsan_data435, @object
	.size	.Lubsan_data435, 32
.Lubsan_data435:
	.quad	.LC0
	.long	204
	.long	61
	.quad	.Lubsan_type4
	.byte	3
	.byte	4
	.zero	6
	.zero	32
	.align 32
	.type	.Lubsan_data436, @object
	.size	.Lubsan_data436, 32
.Lubsan_data436:
	.quad	.LC0
	.long	204
	.long	61
	.quad	.Lubsan_type4
	.byte	3
	.byte	3
	.zero	6
	.zero	32
	.section	.data.rel
	.align 32
	.type	.Lubsan_data437, @object
	.size	.Lubsan_data437, 40
.Lubsan_data437:
	.quad	.LC0
	.long	204
	.long	61
	.quad	.Lubsan_type3
	.quad	_ZTISo
	.byte	4
	.zero	7
	.zero	56
	.section	.data.rel.local
	.align 32
	.type	.Lubsan_data438, @object
	.size	.Lubsan_data438, 32
.Lubsan_data438:
	.quad	.LC0
	.long	205
	.long	22
	.quad	.Lubsan_type6
	.byte	3
	.byte	2
	.zero	6
	.zero	32
	.section	.data.rel
	.align 32
	.type	.Lubsan_data439, @object
	.size	.Lubsan_data439, 40
.Lubsan_data439:
	.quad	.LC0
	.long	206
	.long	11
	.quad	.Lubsan_type3
	.quad	_ZTISo
	.byte	4
	.zero	7
	.zero	56
	.section	.data.rel.local
	.align 32
	.type	.Lubsan_data440, @object
	.size	.Lubsan_data440, 32
.Lubsan_data440:
	.quad	.LC0
	.long	206
	.long	17
	.quad	.Lubsan_type4
	.byte	3
	.byte	2
	.zero	6
	.zero	32
	.align 32
	.type	.Lubsan_data441, @object
	.size	.Lubsan_data441, 32
.Lubsan_data441:
	.quad	.LC0
	.long	206
	.long	59
	.quad	.Lubsan_type4
	.byte	3
	.byte	4
	.zero	6
	.zero	32
	.align 32
	.type	.Lubsan_data442, @object
	.size	.Lubsan_data442, 32
.Lubsan_data442:
	.quad	.LC0
	.long	206
	.long	59
	.quad	.Lubsan_type4
	.byte	3
	.byte	3
	.zero	6
	.zero	32
	.section	.data.rel
	.align 32
	.type	.Lubsan_data443, @object
	.size	.Lubsan_data443, 40
.Lubsan_data443:
	.quad	.LC0
	.long	206
	.long	59
	.quad	.Lubsan_type3
	.quad	_ZTISo
	.byte	4
	.zero	7
	.zero	56
	.section	.data.rel.local
	.align 32
	.type	.Lubsan_data444, @object
	.size	.Lubsan_data444, 32
.Lubsan_data444:
	.quad	.LC0
	.long	207
	.long	22
	.quad	.Lubsan_type6
	.byte	3
	.byte	2
	.zero	6
	.zero	32
	.section	.data.rel
	.align 32
	.type	.Lubsan_data445, @object
	.size	.Lubsan_data445, 40
.Lubsan_data445:
	.quad	.LC0
	.long	217
	.long	11
	.quad	.Lubsan_type3
	.quad	_ZTISo
	.byte	4
	.zero	7
	.zero	56
	.section	.data.rel.local
	.align 32
	.type	.Lubsan_data446, @object
	.size	.Lubsan_data446, 32
.Lubsan_data446:
	.quad	.LC0
	.long	217
	.long	17
	.quad	.Lubsan_type4
	.byte	3
	.byte	2
	.zero	6
	.zero	32
	.align 32
	.type	.Lubsan_data447, @object
	.size	.Lubsan_data447, 32
.Lubsan_data447:
	.quad	.LC0
	.long	217
	.long	47
	.quad	.Lubsan_type4
	.byte	3
	.byte	4
	.zero	6
	.zero	32
	.align 32
	.type	.Lubsan_data448, @object
	.size	.Lubsan_data448, 32
.Lubsan_data448:
	.quad	.LC0
	.long	217
	.long	47
	.quad	.Lubsan_type4
	.byte	3
	.byte	3
	.zero	6
	.zero	32
	.section	.data.rel
	.align 32
	.type	.Lubsan_data449, @object
	.size	.Lubsan_data449, 40
.Lubsan_data449:
	.quad	.LC0
	.long	217
	.long	47
	.quad	.Lubsan_type3
	.quad	_ZTISo
	.byte	4
	.zero	7
	.zero	56
	.section	.data.rel.local
	.align 32
	.type	.Lubsan_data450, @object
	.size	.Lubsan_data450, 32
.Lubsan_data450:
	.quad	.LC0
	.long	217
	.long	53
	.quad	.Lubsan_type5
	.byte	3
	.byte	4
	.zero	6
	.zero	32
	.align 32
	.type	.Lubsan_data451, @object
	.size	.Lubsan_data451, 32
.Lubsan_data451:
	.quad	.LC0
	.long	217
	.long	53
	.quad	.Lubsan_type5
	.byte	3
	.byte	3
	.zero	6
	.zero	32
	.section	.data.rel
	.align 32
	.type	.Lubsan_data452, @object
	.size	.Lubsan_data452, 40
.Lubsan_data452:
	.quad	.LC0
	.long	217
	.long	53
	.quad	.Lubsan_type3
	.quad	_ZTISo
	.byte	4
	.zero	7
	.zero	56
	.align 32
	.type	.Lubsan_data453, @object
	.size	.Lubsan_data453, 40
.Lubsan_data453:
	.quad	.LC0
	.long	223
	.long	11
	.quad	.Lubsan_type3
	.quad	_ZTISo
	.byte	4
	.zero	7
	.zero	56
	.section	.data.rel.local
	.align 32
	.type	.Lubsan_data454, @object
	.size	.Lubsan_data454, 32
.Lubsan_data454:
	.quad	.LC0
	.long	223
	.long	17
	.quad	.Lubsan_type4
	.byte	3
	.byte	2
	.zero	6
	.zero	32
	.align 32
	.type	.Lubsan_data455, @object
	.size	.Lubsan_data455, 32
.Lubsan_data455:
	.quad	.LC0
	.long	223
	.long	50
	.quad	.Lubsan_type4
	.byte	3
	.byte	4
	.zero	6
	.zero	32
	.align 32
	.type	.Lubsan_data456, @object
	.size	.Lubsan_data456, 32
.Lubsan_data456:
	.quad	.LC0
	.long	223
	.long	50
	.quad	.Lubsan_type4
	.byte	3
	.byte	3
	.zero	6
	.zero	32
	.section	.data.rel
	.align 32
	.type	.Lubsan_data457, @object
	.size	.Lubsan_data457, 40
.Lubsan_data457:
	.quad	.LC0
	.long	223
	.long	50
	.quad	.Lubsan_type3
	.quad	_ZTISo
	.byte	4
	.zero	7
	.zero	56
	.align 32
	.type	.Lubsan_data458, @object
	.size	.Lubsan_data458, 40
.Lubsan_data458:
	.quad	.LC0
	.long	237
	.long	11
	.quad	.Lubsan_type3
	.quad	_ZTISo
	.byte	4
	.zero	7
	.zero	56
	.section	.data.rel.local
	.align 32
	.type	.Lubsan_data459, @object
	.size	.Lubsan_data459, 32
.Lubsan_data459:
	.quad	.LC0
	.long	237
	.long	17
	.quad	.Lubsan_type4
	.byte	3
	.byte	2
	.zero	6
	.zero	32
	.align 32
	.type	.Lubsan_data460, @object
	.size	.Lubsan_data460, 32
.Lubsan_data460:
	.quad	.LC0
	.long	237
	.long	50
	.quad	.Lubsan_type4
	.byte	3
	.byte	4
	.zero	6
	.zero	32
	.align 32
	.type	.Lubsan_data461, @object
	.size	.Lubsan_data461, 32
.Lubsan_data461:
	.quad	.LC0
	.long	237
	.long	50
	.quad	.Lubsan_type4
	.byte	3
	.byte	3
	.zero	6
	.zero	32
	.section	.data.rel
	.align 32
	.type	.Lubsan_data462, @object
	.size	.Lubsan_data462, 40
.Lubsan_data462:
	.quad	.LC0
	.long	237
	.long	50
	.quad	.Lubsan_type3
	.quad	_ZTISo
	.byte	4
	.zero	7
	.zero	56
	.align 32
	.type	.Lubsan_data463, @object
	.size	.Lubsan_data463, 40
.Lubsan_data463:
	.quad	.LC0
	.long	251
	.long	11
	.quad	.Lubsan_type3
	.quad	_ZTISo
	.byte	4
	.zero	7
	.zero	56
	.section	.data.rel.local
	.align 32
	.type	.Lubsan_data464, @object
	.size	.Lubsan_data464, 32
.Lubsan_data464:
	.quad	.LC0
	.long	251
	.long	17
	.quad	.Lubsan_type4
	.byte	3
	.byte	2
	.zero	6
	.zero	32
	.align 32
	.type	.Lubsan_data465, @object
	.size	.Lubsan_data465, 32
.Lubsan_data465:
	.quad	.LC0
	.long	251
	.long	56
	.quad	.Lubsan_type4
	.byte	3
	.byte	4
	.zero	6
	.zero	32
	.align 32
	.type	.Lubsan_data466, @object
	.size	.Lubsan_data466, 32
.Lubsan_data466:
	.quad	.LC0
	.long	251
	.long	56
	.quad	.Lubsan_type4
	.byte	3
	.byte	3
	.zero	6
	.zero	32
	.section	.data.rel
	.align 32
	.type	.Lubsan_data467, @object
	.size	.Lubsan_data467, 40
.Lubsan_data467:
	.quad	.LC0
	.long	251
	.long	56
	.quad	.Lubsan_type3
	.quad	_ZTISo
	.byte	4
	.zero	7
	.zero	56
	.align 32
	.type	.Lubsan_data468, @object
	.size	.Lubsan_data468, 40
.Lubsan_data468:
	.quad	.LC0
	.long	302
	.long	11
	.quad	.Lubsan_type3
	.quad	_ZTISo
	.byte	4
	.zero	7
	.zero	56
	.section	.data.rel.local
	.align 32
	.type	.Lubsan_data469, @object
	.size	.Lubsan_data469, 32
.Lubsan_data469:
	.quad	.LC0
	.long	302
	.long	17
	.quad	.Lubsan_type4
	.byte	3
	.byte	2
	.zero	6
	.zero	32
	.align 32
	.type	.Lubsan_data470, @object
	.size	.Lubsan_data470, 32
.Lubsan_data470:
	.quad	.LC0
	.long	302
	.long	44
	.quad	.Lubsan_type4
	.byte	3
	.byte	4
	.zero	6
	.zero	32
	.align 32
	.type	.Lubsan_data471, @object
	.size	.Lubsan_data471, 32
.Lubsan_data471:
	.quad	.LC0
	.long	302
	.long	44
	.quad	.Lubsan_type4
	.byte	3
	.byte	3
	.zero	6
	.zero	32
	.section	.data.rel
	.align 32
	.type	.Lubsan_data472, @object
	.size	.Lubsan_data472, 40
.Lubsan_data472:
	.quad	.LC0
	.long	302
	.long	44
	.quad	.Lubsan_type3
	.quad	_ZTISo
	.byte	4
	.zero	7
	.zero	56
	.section	.data.rel.local
	.align 32
	.type	.Lubsan_data473, @object
	.size	.Lubsan_data473, 32
.Lubsan_data473:
	.quad	.LC0
	.long	302
	.long	50
	.quad	.Lubsan_type5
	.byte	3
	.byte	4
	.zero	6
	.zero	32
	.align 32
	.type	.Lubsan_data474, @object
	.size	.Lubsan_data474, 32
.Lubsan_data474:
	.quad	.LC0
	.long	302
	.long	50
	.quad	.Lubsan_type5
	.byte	3
	.byte	3
	.zero	6
	.zero	32
	.section	.data.rel
	.align 32
	.type	.Lubsan_data475, @object
	.size	.Lubsan_data475, 40
.Lubsan_data475:
	.quad	.LC0
	.long	302
	.long	50
	.quad	.Lubsan_type3
	.quad	_ZTISo
	.byte	4
	.zero	7
	.zero	56
	.align 32
	.type	.Lubsan_data476, @object
	.size	.Lubsan_data476, 40
.Lubsan_data476:
	.quad	.LC0
	.long	304
	.long	11
	.quad	.Lubsan_type3
	.quad	_ZTISo
	.byte	4
	.zero	7
	.zero	56
	.section	.data.rel.local
	.align 32
	.type	.Lubsan_data477, @object
	.size	.Lubsan_data477, 32
.Lubsan_data477:
	.quad	.LC0
	.long	304
	.long	17
	.quad	.Lubsan_type4
	.byte	3
	.byte	2
	.zero	6
	.zero	32
	.align 32
	.type	.Lubsan_data478, @object
	.size	.Lubsan_data478, 32
.Lubsan_data478:
	.quad	.LC0
	.long	304
	.long	51
	.quad	.Lubsan_type4
	.byte	3
	.byte	4
	.zero	6
	.zero	32
	.align 32
	.type	.Lubsan_data479, @object
	.size	.Lubsan_data479, 32
.Lubsan_data479:
	.quad	.LC0
	.long	304
	.long	51
	.quad	.Lubsan_type4
	.byte	3
	.byte	3
	.zero	6
	.zero	32
	.section	.data.rel
	.align 32
	.type	.Lubsan_data480, @object
	.size	.Lubsan_data480, 40
.Lubsan_data480:
	.quad	.LC0
	.long	304
	.long	51
	.quad	.Lubsan_type3
	.quad	_ZTISo
	.byte	4
	.zero	7
	.zero	56
	.section	.data.rel.local
	.align 32
	.type	.Lubsan_data481, @object
	.size	.Lubsan_data481, 32
.Lubsan_data481:
	.quad	.LC0
	.long	305
	.long	27
	.quad	.Lubsan_type6
	.byte	3
	.byte	2
	.zero	6
	.zero	32
	.section	.data.rel
	.align 32
	.type	.Lubsan_data482, @object
	.size	.Lubsan_data482, 40
.Lubsan_data482:
	.quad	.LC0
	.long	307
	.long	11
	.quad	.Lubsan_type3
	.quad	_ZTISo
	.byte	4
	.zero	7
	.zero	56
	.section	.data.rel.local
	.align 32
	.type	.Lubsan_data483, @object
	.size	.Lubsan_data483, 32
.Lubsan_data483:
	.quad	.LC0
	.long	307
	.long	17
	.quad	.Lubsan_type4
	.byte	3
	.byte	2
	.zero	6
	.zero	32
	.align 32
	.type	.Lubsan_data484, @object
	.size	.Lubsan_data484, 32
.Lubsan_data484:
	.quad	.LC0
	.long	307
	.long	52
	.quad	.Lubsan_type4
	.byte	3
	.byte	4
	.zero	6
	.zero	32
	.align 32
	.type	.Lubsan_data485, @object
	.size	.Lubsan_data485, 32
.Lubsan_data485:
	.quad	.LC0
	.long	307
	.long	52
	.quad	.Lubsan_type4
	.byte	3
	.byte	3
	.zero	6
	.zero	32
	.section	.data.rel
	.align 32
	.type	.Lubsan_data486, @object
	.size	.Lubsan_data486, 40
.Lubsan_data486:
	.quad	.LC0
	.long	307
	.long	52
	.quad	.Lubsan_type3
	.quad	_ZTISo
	.byte	4
	.zero	7
	.zero	56
	.section	.data.rel.local
	.align 32
	.type	.Lubsan_data487, @object
	.size	.Lubsan_data487, 32
.Lubsan_data487:
	.quad	.LC0
	.long	308
	.long	20
	.quad	.Lubsan_type6
	.byte	3
	.byte	2
	.zero	6
	.zero	32
	.section	.data.rel
	.align 32
	.type	.Lubsan_data488, @object
	.size	.Lubsan_data488, 40
.Lubsan_data488:
	.quad	.LC0
	.long	312
	.long	11
	.quad	.Lubsan_type3
	.quad	_ZTISo
	.byte	4
	.zero	7
	.zero	56
	.section	.data.rel.local
	.align 32
	.type	.Lubsan_data489, @object
	.size	.Lubsan_data489, 32
.Lubsan_data489:
	.quad	.LC0
	.long	312
	.long	17
	.quad	.Lubsan_type4
	.byte	3
	.byte	2
	.zero	6
	.zero	32
	.align 32
	.type	.Lubsan_data490, @object
	.size	.Lubsan_data490, 32
.Lubsan_data490:
	.quad	.LC0
	.long	312
	.long	44
	.quad	.Lubsan_type4
	.byte	3
	.byte	4
	.zero	6
	.zero	32
	.align 32
	.type	.Lubsan_data491, @object
	.size	.Lubsan_data491, 32
.Lubsan_data491:
	.quad	.LC0
	.long	312
	.long	44
	.quad	.Lubsan_type4
	.byte	3
	.byte	3
	.zero	6
	.zero	32
	.section	.data.rel
	.align 32
	.type	.Lubsan_data492, @object
	.size	.Lubsan_data492, 40
.Lubsan_data492:
	.quad	.LC0
	.long	312
	.long	44
	.quad	.Lubsan_type3
	.quad	_ZTISo
	.byte	4
	.zero	7
	.zero	56
	.section	.data.rel.local
	.align 32
	.type	.Lubsan_data493, @object
	.size	.Lubsan_data493, 32
.Lubsan_data493:
	.quad	.LC0
	.long	312
	.long	50
	.quad	.Lubsan_type5
	.byte	3
	.byte	4
	.zero	6
	.zero	32
	.align 32
	.type	.Lubsan_data494, @object
	.size	.Lubsan_data494, 32
.Lubsan_data494:
	.quad	.LC0
	.long	312
	.long	50
	.quad	.Lubsan_type5
	.byte	3
	.byte	3
	.zero	6
	.zero	32
	.section	.data.rel
	.align 32
	.type	.Lubsan_data495, @object
	.size	.Lubsan_data495, 40
.Lubsan_data495:
	.quad	.LC0
	.long	312
	.long	50
	.quad	.Lubsan_type3
	.quad	_ZTISo
	.byte	4
	.zero	7
	.zero	56
	.align 32
	.type	.Lubsan_data496, @object
	.size	.Lubsan_data496, 40
.Lubsan_data496:
	.quad	.LC0
	.long	314
	.long	11
	.quad	.Lubsan_type3
	.quad	_ZTISo
	.byte	4
	.zero	7
	.zero	56
	.section	.data.rel.local
	.align 32
	.type	.Lubsan_data497, @object
	.size	.Lubsan_data497, 32
.Lubsan_data497:
	.quad	.LC0
	.long	314
	.long	17
	.quad	.Lubsan_type4
	.byte	3
	.byte	2
	.zero	6
	.zero	32
	.align 32
	.type	.Lubsan_data498, @object
	.size	.Lubsan_data498, 32
.Lubsan_data498:
	.quad	.LC0
	.long	314
	.long	51
	.quad	.Lubsan_type4
	.byte	3
	.byte	4
	.zero	6
	.zero	32
	.align 32
	.type	.Lubsan_data499, @object
	.size	.Lubsan_data499, 32
.Lubsan_data499:
	.quad	.LC0
	.long	314
	.long	51
	.quad	.Lubsan_type4
	.byte	3
	.byte	3
	.zero	6
	.zero	32
	.section	.data.rel
	.align 32
	.type	.Lubsan_data500, @object
	.size	.Lubsan_data500, 40
.Lubsan_data500:
	.quad	.LC0
	.long	314
	.long	51
	.quad	.Lubsan_type3
	.quad	_ZTISo
	.byte	4
	.zero	7
	.zero	56
	.section	.data.rel.local
	.align 32
	.type	.Lubsan_data501, @object
	.size	.Lubsan_data501, 32
.Lubsan_data501:
	.quad	.LC0
	.long	316
	.long	30
	.quad	.Lubsan_type6
	.byte	3
	.byte	2
	.zero	6
	.zero	32
	.section	.data.rel
	.align 32
	.type	.Lubsan_data502, @object
	.size	.Lubsan_data502, 40
.Lubsan_data502:
	.quad	.LC0
	.long	317
	.long	11
	.quad	.Lubsan_type3
	.quad	_ZTISo
	.byte	4
	.zero	7
	.zero	56
	.section	.data.rel.local
	.align 32
	.type	.Lubsan_data503, @object
	.size	.Lubsan_data503, 32
.Lubsan_data503:
	.quad	.LC0
	.long	317
	.long	17
	.quad	.Lubsan_type4
	.byte	3
	.byte	2
	.zero	6
	.zero	32
	.align 32
	.type	.Lubsan_data504, @object
	.size	.Lubsan_data504, 32
.Lubsan_data504:
	.quad	.LC0
	.long	317
	.long	36
	.quad	.Lubsan_type4
	.byte	3
	.byte	4
	.zero	6
	.zero	32
	.align 32
	.type	.Lubsan_data505, @object
	.size	.Lubsan_data505, 32
.Lubsan_data505:
	.quad	.LC0
	.long	317
	.long	36
	.quad	.Lubsan_type4
	.byte	3
	.byte	3
	.zero	6
	.zero	32
	.section	.data.rel
	.align 32
	.type	.Lubsan_data506, @object
	.size	.Lubsan_data506, 40
.Lubsan_data506:
	.quad	.LC0
	.long	317
	.long	36
	.quad	.Lubsan_type3
	.quad	_ZTISo
	.byte	4
	.zero	7
	.zero	56
	.section	.data.rel.local
	.align 32
	.type	.Lubsan_data507, @object
	.size	.Lubsan_data507, 32
.Lubsan_data507:
	.quad	.LC0
	.long	317
	.long	58
	.quad	.Lubsan_type4
	.byte	3
	.byte	4
	.zero	6
	.zero	32
	.align 32
	.type	.Lubsan_data508, @object
	.size	.Lubsan_data508, 32
.Lubsan_data508:
	.quad	.LC0
	.long	317
	.long	58
	.quad	.Lubsan_type4
	.byte	3
	.byte	3
	.zero	6
	.zero	32
	.section	.data.rel
	.align 32
	.type	.Lubsan_data509, @object
	.size	.Lubsan_data509, 40
.Lubsan_data509:
	.quad	.LC0
	.long	317
	.long	58
	.quad	.Lubsan_type3
	.quad	_ZTISo
	.byte	4
	.zero	7
	.zero	56
	.section	.data.rel.local
	.align 32
	.type	.Lubsan_data510, @object
	.size	.Lubsan_data510, 32
.Lubsan_data510:
	.quad	.LC0
	.long	317
	.long	66
	.quad	.Lubsan_type4
	.byte	3
	.byte	4
	.zero	6
	.zero	32
	.align 32
	.type	.Lubsan_data511, @object
	.size	.Lubsan_data511, 32
.Lubsan_data511:
	.quad	.LC0
	.long	317
	.long	66
	.quad	.Lubsan_type4
	.byte	3
	.byte	3
	.zero	6
	.zero	32
	.section	.data.rel
	.align 32
	.type	.Lubsan_data512, @object
	.size	.Lubsan_data512, 40
.Lubsan_data512:
	.quad	.LC0
	.long	317
	.long	66
	.quad	.Lubsan_type3
	.quad	_ZTISo
	.byte	4
	.zero	7
	.zero	56
	.align 32
	.type	.Lubsan_data513, @object
	.size	.Lubsan_data513, 40
.Lubsan_data513:
	.quad	.LC0
	.long	319
	.long	11
	.quad	.Lubsan_type3
	.quad	_ZTISo
	.byte	4
	.zero	7
	.zero	56
	.section	.data.rel.local
	.align 32
	.type	.Lubsan_data514, @object
	.size	.Lubsan_data514, 32
.Lubsan_data514:
	.quad	.LC0
	.long	319
	.long	17
	.quad	.Lubsan_type4
	.byte	3
	.byte	2
	.zero	6
	.zero	32
	.align 32
	.type	.Lubsan_data515, @object
	.size	.Lubsan_data515, 32
.Lubsan_data515:
	.quad	.LC0
	.long	319
	.long	35
	.quad	.Lubsan_type4
	.byte	3
	.byte	4
	.zero	6
	.zero	32
	.align 32
	.type	.Lubsan_data516, @object
	.size	.Lubsan_data516, 32
.Lubsan_data516:
	.quad	.LC0
	.long	319
	.long	35
	.quad	.Lubsan_type4
	.byte	3
	.byte	3
	.zero	6
	.zero	32
	.section	.data.rel
	.align 32
	.type	.Lubsan_data517, @object
	.size	.Lubsan_data517, 40
.Lubsan_data517:
	.quad	.LC0
	.long	319
	.long	35
	.quad	.Lubsan_type3
	.quad	_ZTISo
	.byte	4
	.zero	7
	.zero	56
	.section	.data.rel.local
	.align 32
	.type	.Lubsan_data518, @object
	.size	.Lubsan_data518, 32
.Lubsan_data518:
	.quad	.LC0
	.long	319
	.long	57
	.quad	.Lubsan_type4
	.byte	3
	.byte	4
	.zero	6
	.zero	32
	.align 32
	.type	.Lubsan_data519, @object
	.size	.Lubsan_data519, 32
.Lubsan_data519:
	.quad	.LC0
	.long	319
	.long	57
	.quad	.Lubsan_type4
	.byte	3
	.byte	3
	.zero	6
	.zero	32
	.section	.data.rel
	.align 32
	.type	.Lubsan_data520, @object
	.size	.Lubsan_data520, 40
.Lubsan_data520:
	.quad	.LC0
	.long	319
	.long	57
	.quad	.Lubsan_type3
	.quad	_ZTISo
	.byte	4
	.zero	7
	.zero	56
	.section	.data.rel.local
	.align 32
	.type	.Lubsan_data521, @object
	.size	.Lubsan_data521, 32
.Lubsan_data521:
	.quad	.LC0
	.long	319
	.long	65
	.quad	.Lubsan_type4
	.byte	3
	.byte	4
	.zero	6
	.zero	32
	.align 32
	.type	.Lubsan_data522, @object
	.size	.Lubsan_data522, 32
.Lubsan_data522:
	.quad	.LC0
	.long	319
	.long	65
	.quad	.Lubsan_type4
	.byte	3
	.byte	3
	.zero	6
	.zero	32
	.section	.data.rel
	.align 32
	.type	.Lubsan_data523, @object
	.size	.Lubsan_data523, 40
.Lubsan_data523:
	.quad	.LC0
	.long	319
	.long	65
	.quad	.Lubsan_type3
	.quad	_ZTISo
	.byte	4
	.zero	7
	.zero	56
	.align 32
	.type	.Lubsan_data524, @object
	.size	.Lubsan_data524, 40
.Lubsan_data524:
	.quad	.LC0
	.long	340
	.long	11
	.quad	.Lubsan_type3
	.quad	_ZTISo
	.byte	4
	.zero	7
	.zero	56
	.section	.data.rel.local
	.align 32
	.type	.Lubsan_data525, @object
	.size	.Lubsan_data525, 32
.Lubsan_data525:
	.quad	.LC0
	.long	340
	.long	17
	.quad	.Lubsan_type4
	.byte	3
	.byte	2
	.zero	6
	.zero	32
	.align 32
	.type	.Lubsan_data526, @object
	.size	.Lubsan_data526, 32
.Lubsan_data526:
	.quad	.LC0
	.long	340
	.long	48
	.quad	.Lubsan_type4
	.byte	3
	.byte	4
	.zero	6
	.zero	32
	.align 32
	.type	.Lubsan_data527, @object
	.size	.Lubsan_data527, 32
.Lubsan_data527:
	.quad	.LC0
	.long	340
	.long	48
	.quad	.Lubsan_type4
	.byte	3
	.byte	3
	.zero	6
	.zero	32
	.section	.data.rel
	.align 32
	.type	.Lubsan_data528, @object
	.size	.Lubsan_data528, 40
.Lubsan_data528:
	.quad	.LC0
	.long	340
	.long	48
	.quad	.Lubsan_type3
	.quad	_ZTISo
	.byte	4
	.zero	7
	.zero	56
	.section	.data.rel.local
	.align 32
	.type	.Lubsan_data529, @object
	.size	.Lubsan_data529, 32
.Lubsan_data529:
	.quad	.LC0
	.long	341
	.long	23
	.quad	.Lubsan_type6
	.byte	3
	.byte	2
	.zero	6
	.zero	32
	.section	.data.rel
	.align 32
	.type	.Lubsan_data530, @object
	.size	.Lubsan_data530, 40
.Lubsan_data530:
	.quad	.LC0
	.long	342
	.long	11
	.quad	.Lubsan_type3
	.quad	_ZTISo
	.byte	4
	.zero	7
	.zero	56
	.section	.data.rel.local
	.align 32
	.type	.Lubsan_data531, @object
	.size	.Lubsan_data531, 32
.Lubsan_data531:
	.quad	.LC0
	.long	342
	.long	17
	.quad	.Lubsan_type4
	.byte	3
	.byte	2
	.zero	6
	.zero	32
	.align 32
	.type	.Lubsan_data532, @object
	.size	.Lubsan_data532, 32
.Lubsan_data532:
	.quad	.LC0
	.long	342
	.long	36
	.quad	.Lubsan_type4
	.byte	3
	.byte	4
	.zero	6
	.zero	32
	.align 32
	.type	.Lubsan_data533, @object
	.size	.Lubsan_data533, 32
.Lubsan_data533:
	.quad	.LC0
	.long	342
	.long	36
	.quad	.Lubsan_type4
	.byte	3
	.byte	3
	.zero	6
	.zero	32
	.section	.data.rel
	.align 32
	.type	.Lubsan_data534, @object
	.size	.Lubsan_data534, 40
.Lubsan_data534:
	.quad	.LC0
	.long	342
	.long	36
	.quad	.Lubsan_type3
	.quad	_ZTISo
	.byte	4
	.zero	7
	.zero	56
	.section	.data.rel.local
	.align 32
	.type	.Lubsan_data535, @object
	.size	.Lubsan_data535, 32
.Lubsan_data535:
	.quad	.LC0
	.long	342
	.long	58
	.quad	.Lubsan_type4
	.byte	3
	.byte	4
	.zero	6
	.zero	32
	.align 32
	.type	.Lubsan_data536, @object
	.size	.Lubsan_data536, 32
.Lubsan_data536:
	.quad	.LC0
	.long	342
	.long	58
	.quad	.Lubsan_type4
	.byte	3
	.byte	3
	.zero	6
	.zero	32
	.section	.data.rel
	.align 32
	.type	.Lubsan_data537, @object
	.size	.Lubsan_data537, 40
.Lubsan_data537:
	.quad	.LC0
	.long	342
	.long	58
	.quad	.Lubsan_type3
	.quad	_ZTISo
	.byte	4
	.zero	7
	.zero	56
	.section	.data.rel.local
	.align 32
	.type	.Lubsan_data538, @object
	.size	.Lubsan_data538, 32
.Lubsan_data538:
	.quad	.LC0
	.long	342
	.long	66
	.quad	.Lubsan_type4
	.byte	3
	.byte	4
	.zero	6
	.zero	32
	.align 32
	.type	.Lubsan_data539, @object
	.size	.Lubsan_data539, 32
.Lubsan_data539:
	.quad	.LC0
	.long	342
	.long	66
	.quad	.Lubsan_type4
	.byte	3
	.byte	3
	.zero	6
	.zero	32
	.section	.data.rel
	.align 32
	.type	.Lubsan_data540, @object
	.size	.Lubsan_data540, 40
.Lubsan_data540:
	.quad	.LC0
	.long	342
	.long	66
	.quad	.Lubsan_type3
	.quad	_ZTISo
	.byte	4
	.zero	7
	.zero	56
	.align 32
	.type	.Lubsan_data541, @object
	.size	.Lubsan_data541, 40
.Lubsan_data541:
	.quad	.LC0
	.long	344
	.long	11
	.quad	.Lubsan_type3
	.quad	_ZTISo
	.byte	4
	.zero	7
	.zero	56
	.section	.data.rel.local
	.align 32
	.type	.Lubsan_data542, @object
	.size	.Lubsan_data542, 32
.Lubsan_data542:
	.quad	.LC0
	.long	344
	.long	17
	.quad	.Lubsan_type4
	.byte	3
	.byte	2
	.zero	6
	.zero	32
	.align 32
	.type	.Lubsan_data543, @object
	.size	.Lubsan_data543, 32
.Lubsan_data543:
	.quad	.LC0
	.long	344
	.long	35
	.quad	.Lubsan_type4
	.byte	3
	.byte	4
	.zero	6
	.zero	32
	.align 32
	.type	.Lubsan_data544, @object
	.size	.Lubsan_data544, 32
.Lubsan_data544:
	.quad	.LC0
	.long	344
	.long	35
	.quad	.Lubsan_type4
	.byte	3
	.byte	3
	.zero	6
	.zero	32
	.section	.data.rel
	.align 32
	.type	.Lubsan_data545, @object
	.size	.Lubsan_data545, 40
.Lubsan_data545:
	.quad	.LC0
	.long	344
	.long	35
	.quad	.Lubsan_type3
	.quad	_ZTISo
	.byte	4
	.zero	7
	.zero	56
	.section	.data.rel.local
	.align 32
	.type	.Lubsan_data546, @object
	.size	.Lubsan_data546, 32
.Lubsan_data546:
	.quad	.LC0
	.long	344
	.long	57
	.quad	.Lubsan_type4
	.byte	3
	.byte	4
	.zero	6
	.zero	32
	.align 32
	.type	.Lubsan_data547, @object
	.size	.Lubsan_data547, 32
.Lubsan_data547:
	.quad	.LC0
	.long	344
	.long	57
	.quad	.Lubsan_type4
	.byte	3
	.byte	3
	.zero	6
	.zero	32
	.section	.data.rel
	.align 32
	.type	.Lubsan_data548, @object
	.size	.Lubsan_data548, 40
.Lubsan_data548:
	.quad	.LC0
	.long	344
	.long	57
	.quad	.Lubsan_type3
	.quad	_ZTISo
	.byte	4
	.zero	7
	.zero	56
	.section	.data.rel.local
	.align 32
	.type	.Lubsan_data549, @object
	.size	.Lubsan_data549, 32
.Lubsan_data549:
	.quad	.LC0
	.long	344
	.long	65
	.quad	.Lubsan_type4
	.byte	3
	.byte	4
	.zero	6
	.zero	32
	.align 32
	.type	.Lubsan_data550, @object
	.size	.Lubsan_data550, 32
.Lubsan_data550:
	.quad	.LC0
	.long	344
	.long	65
	.quad	.Lubsan_type4
	.byte	3
	.byte	3
	.zero	6
	.zero	32
	.section	.data.rel
	.align 32
	.type	.Lubsan_data551, @object
	.size	.Lubsan_data551, 40
.Lubsan_data551:
	.quad	.LC0
	.long	344
	.long	65
	.quad	.Lubsan_type3
	.quad	_ZTISo
	.byte	4
	.zero	7
	.zero	56
	.align 32
	.type	.Lubsan_data552, @object
	.size	.Lubsan_data552, 40
.Lubsan_data552:
	.quad	.LC0
	.long	346
	.long	11
	.quad	.Lubsan_type3
	.quad	_ZTISo
	.byte	4
	.zero	7
	.zero	56
	.section	.data.rel.local
	.align 32
	.type	.Lubsan_data553, @object
	.size	.Lubsan_data553, 32
.Lubsan_data553:
	.quad	.LC0
	.long	346
	.long	17
	.quad	.Lubsan_type4
	.byte	3
	.byte	2
	.zero	6
	.zero	32
	.align 32
	.type	.Lubsan_data554, @object
	.size	.Lubsan_data554, 32
.Lubsan_data554:
	.quad	.LC0
	.long	346
	.long	48
	.quad	.Lubsan_type4
	.byte	3
	.byte	4
	.zero	6
	.zero	32
	.align 32
	.type	.Lubsan_data555, @object
	.size	.Lubsan_data555, 32
.Lubsan_data555:
	.quad	.LC0
	.long	346
	.long	48
	.quad	.Lubsan_type4
	.byte	3
	.byte	3
	.zero	6
	.zero	32
	.section	.data.rel
	.align 32
	.type	.Lubsan_data556, @object
	.size	.Lubsan_data556, 40
.Lubsan_data556:
	.quad	.LC0
	.long	346
	.long	48
	.quad	.Lubsan_type3
	.quad	_ZTISo
	.byte	4
	.zero	7
	.zero	56
	.section	.data.rel.local
	.align 32
	.type	.Lubsan_data557, @object
	.size	.Lubsan_data557, 32
.Lubsan_data557:
	.quad	.LC0
	.long	347
	.long	23
	.quad	.Lubsan_type6
	.byte	3
	.byte	2
	.zero	6
	.zero	32
	.section	.data.rel
	.align 32
	.type	.Lubsan_data558, @object
	.size	.Lubsan_data558, 40
.Lubsan_data558:
	.quad	.LC0
	.long	348
	.long	11
	.quad	.Lubsan_type3
	.quad	_ZTISo
	.byte	4
	.zero	7
	.zero	56
	.section	.data.rel.local
	.align 32
	.type	.Lubsan_data559, @object
	.size	.Lubsan_data559, 32
.Lubsan_data559:
	.quad	.LC0
	.long	348
	.long	17
	.quad	.Lubsan_type4
	.byte	3
	.byte	2
	.zero	6
	.zero	32
	.align 32
	.type	.Lubsan_data560, @object
	.size	.Lubsan_data560, 32
.Lubsan_data560:
	.quad	.LC0
	.long	348
	.long	36
	.quad	.Lubsan_type4
	.byte	3
	.byte	4
	.zero	6
	.zero	32
	.align 32
	.type	.Lubsan_data561, @object
	.size	.Lubsan_data561, 32
.Lubsan_data561:
	.quad	.LC0
	.long	348
	.long	36
	.quad	.Lubsan_type4
	.byte	3
	.byte	3
	.zero	6
	.zero	32
	.section	.data.rel
	.align 32
	.type	.Lubsan_data562, @object
	.size	.Lubsan_data562, 40
.Lubsan_data562:
	.quad	.LC0
	.long	348
	.long	36
	.quad	.Lubsan_type3
	.quad	_ZTISo
	.byte	4
	.zero	7
	.zero	56
	.section	.data.rel.local
	.align 32
	.type	.Lubsan_data563, @object
	.size	.Lubsan_data563, 32
.Lubsan_data563:
	.quad	.LC0
	.long	348
	.long	58
	.quad	.Lubsan_type4
	.byte	3
	.byte	4
	.zero	6
	.zero	32
	.align 32
	.type	.Lubsan_data564, @object
	.size	.Lubsan_data564, 32
.Lubsan_data564:
	.quad	.LC0
	.long	348
	.long	58
	.quad	.Lubsan_type4
	.byte	3
	.byte	3
	.zero	6
	.zero	32
	.section	.data.rel
	.align 32
	.type	.Lubsan_data565, @object
	.size	.Lubsan_data565, 40
.Lubsan_data565:
	.quad	.LC0
	.long	348
	.long	58
	.quad	.Lubsan_type3
	.quad	_ZTISo
	.byte	4
	.zero	7
	.zero	56
	.section	.data.rel.local
	.align 32
	.type	.Lubsan_data566, @object
	.size	.Lubsan_data566, 32
.Lubsan_data566:
	.quad	.LC0
	.long	348
	.long	66
	.quad	.Lubsan_type4
	.byte	3
	.byte	4
	.zero	6
	.zero	32
	.align 32
	.type	.Lubsan_data567, @object
	.size	.Lubsan_data567, 32
.Lubsan_data567:
	.quad	.LC0
	.long	348
	.long	66
	.quad	.Lubsan_type4
	.byte	3
	.byte	3
	.zero	6
	.zero	32
	.section	.data.rel
	.align 32
	.type	.Lubsan_data568, @object
	.size	.Lubsan_data568, 40
.Lubsan_data568:
	.quad	.LC0
	.long	348
	.long	66
	.quad	.Lubsan_type3
	.quad	_ZTISo
	.byte	4
	.zero	7
	.zero	56
	.align 32
	.type	.Lubsan_data569, @object
	.size	.Lubsan_data569, 40
.Lubsan_data569:
	.quad	.LC0
	.long	350
	.long	11
	.quad	.Lubsan_type3
	.quad	_ZTISo
	.byte	4
	.zero	7
	.zero	56
	.section	.data.rel.local
	.align 32
	.type	.Lubsan_data570, @object
	.size	.Lubsan_data570, 32
.Lubsan_data570:
	.quad	.LC0
	.long	350
	.long	17
	.quad	.Lubsan_type4
	.byte	3
	.byte	2
	.zero	6
	.zero	32
	.align 32
	.type	.Lubsan_data571, @object
	.size	.Lubsan_data571, 32
.Lubsan_data571:
	.quad	.LC0
	.long	350
	.long	35
	.quad	.Lubsan_type4
	.byte	3
	.byte	4
	.zero	6
	.zero	32
	.align 32
	.type	.Lubsan_data572, @object
	.size	.Lubsan_data572, 32
.Lubsan_data572:
	.quad	.LC0
	.long	350
	.long	35
	.quad	.Lubsan_type4
	.byte	3
	.byte	3
	.zero	6
	.zero	32
	.section	.data.rel
	.align 32
	.type	.Lubsan_data573, @object
	.size	.Lubsan_data573, 40
.Lubsan_data573:
	.quad	.LC0
	.long	350
	.long	35
	.quad	.Lubsan_type3
	.quad	_ZTISo
	.byte	4
	.zero	7
	.zero	56
	.section	.data.rel.local
	.align 32
	.type	.Lubsan_data574, @object
	.size	.Lubsan_data574, 32
.Lubsan_data574:
	.quad	.LC0
	.long	350
	.long	57
	.quad	.Lubsan_type4
	.byte	3
	.byte	4
	.zero	6
	.zero	32
	.align 32
	.type	.Lubsan_data575, @object
	.size	.Lubsan_data575, 32
.Lubsan_data575:
	.quad	.LC0
	.long	350
	.long	57
	.quad	.Lubsan_type4
	.byte	3
	.byte	3
	.zero	6
	.zero	32
	.section	.data.rel
	.align 32
	.type	.Lubsan_data576, @object
	.size	.Lubsan_data576, 40
.Lubsan_data576:
	.quad	.LC0
	.long	350
	.long	57
	.quad	.Lubsan_type3
	.quad	_ZTISo
	.byte	4
	.zero	7
	.zero	56
	.section	.data.rel.local
	.align 32
	.type	.Lubsan_data577, @object
	.size	.Lubsan_data577, 32
.Lubsan_data577:
	.quad	.LC0
	.long	350
	.long	65
	.quad	.Lubsan_type4
	.byte	3
	.byte	4
	.zero	6
	.zero	32
	.align 32
	.type	.Lubsan_data578, @object
	.size	.Lubsan_data578, 32
.Lubsan_data578:
	.quad	.LC0
	.long	350
	.long	65
	.quad	.Lubsan_type4
	.byte	3
	.byte	3
	.zero	6
	.zero	32
	.section	.data.rel
	.align 32
	.type	.Lubsan_data579, @object
	.size	.Lubsan_data579, 40
.Lubsan_data579:
	.quad	.LC0
	.long	350
	.long	65
	.quad	.Lubsan_type3
	.quad	_ZTISo
	.byte	4
	.zero	7
	.zero	56
	.align 32
	.type	.Lubsan_data580, @object
	.size	.Lubsan_data580, 40
.Lubsan_data580:
	.quad	.LC0
	.long	352
	.long	11
	.quad	.Lubsan_type3
	.quad	_ZTISo
	.byte	4
	.zero	7
	.zero	56
	.section	.data.rel.local
	.align 32
	.type	.Lubsan_data581, @object
	.size	.Lubsan_data581, 32
.Lubsan_data581:
	.quad	.LC0
	.long	352
	.long	17
	.quad	.Lubsan_type4
	.byte	3
	.byte	2
	.zero	6
	.zero	32
	.align 32
	.type	.Lubsan_data582, @object
	.size	.Lubsan_data582, 32
.Lubsan_data582:
	.quad	.LC0
	.long	352
	.long	58
	.quad	.Lubsan_type4
	.byte	3
	.byte	4
	.zero	6
	.zero	32
	.align 32
	.type	.Lubsan_data583, @object
	.size	.Lubsan_data583, 32
.Lubsan_data583:
	.quad	.LC0
	.long	352
	.long	58
	.quad	.Lubsan_type4
	.byte	3
	.byte	3
	.zero	6
	.zero	32
	.section	.data.rel
	.align 32
	.type	.Lubsan_data584, @object
	.size	.Lubsan_data584, 40
.Lubsan_data584:
	.quad	.LC0
	.long	352
	.long	58
	.quad	.Lubsan_type3
	.quad	_ZTISo
	.byte	4
	.zero	7
	.zero	56
	.section	.data.rel.local
	.align 32
	.type	.Lubsan_data585, @object
	.size	.Lubsan_data585, 32
.Lubsan_data585:
	.quad	.LC0
	.long	353
	.long	23
	.quad	.Lubsan_type6
	.byte	3
	.byte	2
	.zero	6
	.zero	32
	.section	.data.rel
	.align 32
	.type	.Lubsan_data586, @object
	.size	.Lubsan_data586, 40
.Lubsan_data586:
	.quad	.LC0
	.long	354
	.long	11
	.quad	.Lubsan_type3
	.quad	_ZTISo
	.byte	4
	.zero	7
	.zero	56
	.section	.data.rel.local
	.align 32
	.type	.Lubsan_data587, @object
	.size	.Lubsan_data587, 32
.Lubsan_data587:
	.quad	.LC0
	.long	354
	.long	17
	.quad	.Lubsan_type4
	.byte	3
	.byte	2
	.zero	6
	.zero	32
	.align 32
	.type	.Lubsan_data588, @object
	.size	.Lubsan_data588, 32
.Lubsan_data588:
	.quad	.LC0
	.long	354
	.long	36
	.quad	.Lubsan_type4
	.byte	3
	.byte	4
	.zero	6
	.zero	32
	.align 32
	.type	.Lubsan_data589, @object
	.size	.Lubsan_data589, 32
.Lubsan_data589:
	.quad	.LC0
	.long	354
	.long	36
	.quad	.Lubsan_type4
	.byte	3
	.byte	3
	.zero	6
	.zero	32
	.section	.data.rel
	.align 32
	.type	.Lubsan_data590, @object
	.size	.Lubsan_data590, 40
.Lubsan_data590:
	.quad	.LC0
	.long	354
	.long	36
	.quad	.Lubsan_type3
	.quad	_ZTISo
	.byte	4
	.zero	7
	.zero	56
	.section	.data.rel.local
	.align 32
	.type	.Lubsan_data591, @object
	.size	.Lubsan_data591, 32
.Lubsan_data591:
	.quad	.LC0
	.long	354
	.long	58
	.quad	.Lubsan_type4
	.byte	3
	.byte	4
	.zero	6
	.zero	32
	.align 32
	.type	.Lubsan_data592, @object
	.size	.Lubsan_data592, 32
.Lubsan_data592:
	.quad	.LC0
	.long	354
	.long	58
	.quad	.Lubsan_type4
	.byte	3
	.byte	3
	.zero	6
	.zero	32
	.section	.data.rel
	.align 32
	.type	.Lubsan_data593, @object
	.size	.Lubsan_data593, 40
.Lubsan_data593:
	.quad	.LC0
	.long	354
	.long	58
	.quad	.Lubsan_type3
	.quad	_ZTISo
	.byte	4
	.zero	7
	.zero	56
	.section	.data.rel.local
	.align 32
	.type	.Lubsan_data594, @object
	.size	.Lubsan_data594, 32
.Lubsan_data594:
	.quad	.LC0
	.long	354
	.long	66
	.quad	.Lubsan_type4
	.byte	3
	.byte	4
	.zero	6
	.zero	32
	.align 32
	.type	.Lubsan_data595, @object
	.size	.Lubsan_data595, 32
.Lubsan_data595:
	.quad	.LC0
	.long	354
	.long	66
	.quad	.Lubsan_type4
	.byte	3
	.byte	3
	.zero	6
	.zero	32
	.section	.data.rel
	.align 32
	.type	.Lubsan_data596, @object
	.size	.Lubsan_data596, 40
.Lubsan_data596:
	.quad	.LC0
	.long	354
	.long	66
	.quad	.Lubsan_type3
	.quad	_ZTISo
	.byte	4
	.zero	7
	.zero	56
	.align 32
	.type	.Lubsan_data597, @object
	.size	.Lubsan_data597, 40
.Lubsan_data597:
	.quad	.LC0
	.long	356
	.long	11
	.quad	.Lubsan_type3
	.quad	_ZTISo
	.byte	4
	.zero	7
	.zero	56
	.section	.data.rel.local
	.align 32
	.type	.Lubsan_data598, @object
	.size	.Lubsan_data598, 32
.Lubsan_data598:
	.quad	.LC0
	.long	356
	.long	17
	.quad	.Lubsan_type4
	.byte	3
	.byte	2
	.zero	6
	.zero	32
	.align 32
	.type	.Lubsan_data599, @object
	.size	.Lubsan_data599, 32
.Lubsan_data599:
	.quad	.LC0
	.long	356
	.long	35
	.quad	.Lubsan_type4
	.byte	3
	.byte	4
	.zero	6
	.zero	32
	.align 32
	.type	.Lubsan_data600, @object
	.size	.Lubsan_data600, 32
.Lubsan_data600:
	.quad	.LC0
	.long	356
	.long	35
	.quad	.Lubsan_type4
	.byte	3
	.byte	3
	.zero	6
	.zero	32
	.section	.data.rel
	.align 32
	.type	.Lubsan_data601, @object
	.size	.Lubsan_data601, 40
.Lubsan_data601:
	.quad	.LC0
	.long	356
	.long	35
	.quad	.Lubsan_type3
	.quad	_ZTISo
	.byte	4
	.zero	7
	.zero	56
	.section	.data.rel.local
	.align 32
	.type	.Lubsan_data602, @object
	.size	.Lubsan_data602, 32
.Lubsan_data602:
	.quad	.LC0
	.long	356
	.long	57
	.quad	.Lubsan_type4
	.byte	3
	.byte	4
	.zero	6
	.zero	32
	.align 32
	.type	.Lubsan_data603, @object
	.size	.Lubsan_data603, 32
.Lubsan_data603:
	.quad	.LC0
	.long	356
	.long	57
	.quad	.Lubsan_type4
	.byte	3
	.byte	3
	.zero	6
	.zero	32
	.section	.data.rel
	.align 32
	.type	.Lubsan_data604, @object
	.size	.Lubsan_data604, 40
.Lubsan_data604:
	.quad	.LC0
	.long	356
	.long	57
	.quad	.Lubsan_type3
	.quad	_ZTISo
	.byte	4
	.zero	7
	.zero	56
	.section	.data.rel.local
	.align 32
	.type	.Lubsan_data605, @object
	.size	.Lubsan_data605, 32
.Lubsan_data605:
	.quad	.LC0
	.long	356
	.long	65
	.quad	.Lubsan_type4
	.byte	3
	.byte	4
	.zero	6
	.zero	32
	.align 32
	.type	.Lubsan_data606, @object
	.size	.Lubsan_data606, 32
.Lubsan_data606:
	.quad	.LC0
	.long	356
	.long	65
	.quad	.Lubsan_type4
	.byte	3
	.byte	3
	.zero	6
	.zero	32
	.section	.data.rel
	.align 32
	.type	.Lubsan_data607, @object
	.size	.Lubsan_data607, 40
.Lubsan_data607:
	.quad	.LC0
	.long	356
	.long	65
	.quad	.Lubsan_type3
	.quad	_ZTISo
	.byte	4
	.zero	7
	.zero	56
	.align 32
	.type	.Lubsan_data608, @object
	.size	.Lubsan_data608, 40
.Lubsan_data608:
	.quad	.LC0
	.long	359
	.long	11
	.quad	.Lubsan_type3
	.quad	_ZTISo
	.byte	4
	.zero	7
	.zero	56
	.section	.data.rel.local
	.align 32
	.type	.Lubsan_data609, @object
	.size	.Lubsan_data609, 32
.Lubsan_data609:
	.quad	.LC0
	.long	359
	.long	17
	.quad	.Lubsan_type4
	.byte	3
	.byte	2
	.zero	6
	.zero	32
	.align 32
	.type	.Lubsan_data610, @object
	.size	.Lubsan_data610, 32
.Lubsan_data610:
	.quad	.LC0
	.long	359
	.long	47
	.quad	.Lubsan_type4
	.byte	3
	.byte	4
	.zero	6
	.zero	32
	.align 32
	.type	.Lubsan_data611, @object
	.size	.Lubsan_data611, 32
.Lubsan_data611:
	.quad	.LC0
	.long	359
	.long	47
	.quad	.Lubsan_type4
	.byte	3
	.byte	3
	.zero	6
	.zero	32
	.section	.data.rel
	.align 32
	.type	.Lubsan_data612, @object
	.size	.Lubsan_data612, 40
.Lubsan_data612:
	.quad	.LC0
	.long	359
	.long	47
	.quad	.Lubsan_type3
	.quad	_ZTISo
	.byte	4
	.zero	7
	.zero	56
	.section	.data.rel.local
	.align 32
	.type	.Lubsan_data613, @object
	.size	.Lubsan_data613, 32
.Lubsan_data613:
	.quad	.LC0
	.long	359
	.long	53
	.quad	.Lubsan_type5
	.byte	3
	.byte	4
	.zero	6
	.zero	32
	.align 32
	.type	.Lubsan_data614, @object
	.size	.Lubsan_data614, 32
.Lubsan_data614:
	.quad	.LC0
	.long	359
	.long	53
	.quad	.Lubsan_type5
	.byte	3
	.byte	3
	.zero	6
	.zero	32
	.section	.data.rel
	.align 32
	.type	.Lubsan_data615, @object
	.size	.Lubsan_data615, 40
.Lubsan_data615:
	.quad	.LC0
	.long	359
	.long	53
	.quad	.Lubsan_type3
	.quad	_ZTISo
	.byte	4
	.zero	7
	.zero	56
	.align 32
	.type	.Lubsan_data616, @object
	.size	.Lubsan_data616, 40
.Lubsan_data616:
	.quad	.LC0
	.long	361
	.long	11
	.quad	.Lubsan_type3
	.quad	_ZTISo
	.byte	4
	.zero	7
	.zero	56
	.section	.data.rel.local
	.align 32
	.type	.Lubsan_data617, @object
	.size	.Lubsan_data617, 32
.Lubsan_data617:
	.quad	.LC0
	.long	361
	.long	17
	.quad	.Lubsan_type4
	.byte	3
	.byte	2
	.zero	6
	.zero	32
	.align 32
	.type	.Lubsan_data618, @object
	.size	.Lubsan_data618, 32
.Lubsan_data618:
	.quad	.LC0
	.long	361
	.long	54
	.quad	.Lubsan_type4
	.byte	3
	.byte	4
	.zero	6
	.zero	32
	.align 32
	.type	.Lubsan_data619, @object
	.size	.Lubsan_data619, 32
.Lubsan_data619:
	.quad	.LC0
	.long	361
	.long	54
	.quad	.Lubsan_type4
	.byte	3
	.byte	3
	.zero	6
	.zero	32
	.section	.data.rel
	.align 32
	.type	.Lubsan_data620, @object
	.size	.Lubsan_data620, 40
.Lubsan_data620:
	.quad	.LC0
	.long	361
	.long	54
	.quad	.Lubsan_type3
	.quad	_ZTISo
	.byte	4
	.zero	7
	.zero	56
	.section	.data.rel.local
	.align 32
	.type	.Lubsan_data621, @object
	.size	.Lubsan_data621, 32
.Lubsan_data621:
	.quad	.LC0
	.long	363
	.long	20
	.quad	.Lubsan_type6
	.byte	3
	.byte	2
	.zero	6
	.zero	32
	.section	.data.rel
	.align 32
	.type	.Lubsan_data622, @object
	.size	.Lubsan_data622, 40
.Lubsan_data622:
	.quad	.LC0
	.long	365
	.long	11
	.quad	.Lubsan_type3
	.quad	_ZTISo
	.byte	4
	.zero	7
	.zero	56
	.section	.data.rel.local
	.align 32
	.type	.Lubsan_data623, @object
	.size	.Lubsan_data623, 32
.Lubsan_data623:
	.quad	.LC0
	.long	365
	.long	17
	.quad	.Lubsan_type5
	.byte	3
	.byte	4
	.zero	6
	.zero	32
	.align 32
	.type	.Lubsan_data624, @object
	.size	.Lubsan_data624, 32
.Lubsan_data624:
	.quad	.LC0
	.long	365
	.long	17
	.quad	.Lubsan_type5
	.byte	3
	.byte	3
	.zero	6
	.zero	32
	.section	.data.rel
	.align 32
	.type	.Lubsan_data625, @object
	.size	.Lubsan_data625, 40
.Lubsan_data625:
	.quad	.LC0
	.long	365
	.long	17
	.quad	.Lubsan_type3
	.quad	_ZTISo
	.byte	4
	.zero	7
	.zero	56
	.section	.data.rel.local
	.align 32
	.type	.Lubsan_data626, @object
	.size	.Lubsan_data626, 32
.Lubsan_data626:
	.quad	.LC0
	.long	365
	.long	23
	.quad	.Lubsan_type4
	.byte	3
	.byte	2
	.zero	6
	.zero	32
	.align 32
	.type	.Lubsan_data627, @object
	.size	.Lubsan_data627, 32
.Lubsan_data627:
	.quad	.LC0
	.long	365
	.long	55
	.quad	.Lubsan_type4
	.byte	3
	.byte	4
	.zero	6
	.zero	32
	.align 32
	.type	.Lubsan_data628, @object
	.size	.Lubsan_data628, 32
.Lubsan_data628:
	.quad	.LC0
	.long	365
	.long	55
	.quad	.Lubsan_type4
	.byte	3
	.byte	3
	.zero	6
	.zero	32
	.section	.data.rel
	.align 32
	.type	.Lubsan_data629, @object
	.size	.Lubsan_data629, 40
.Lubsan_data629:
	.quad	.LC0
	.long	365
	.long	55
	.quad	.Lubsan_type3
	.quad	_ZTISo
	.byte	4
	.zero	7
	.zero	56
	.align 32
	.type	.Lubsan_data630, @object
	.size	.Lubsan_data630, 40
.Lubsan_data630:
	.quad	.LC0
	.long	368
	.long	11
	.quad	.Lubsan_type3
	.quad	_ZTISo
	.byte	4
	.zero	7
	.zero	56
	.section	.data.rel.local
	.align 32
	.type	.Lubsan_data631, @object
	.size	.Lubsan_data631, 32
.Lubsan_data631:
	.quad	.LC0
	.long	368
	.long	17
	.quad	.Lubsan_type4
	.byte	3
	.byte	2
	.zero	6
	.zero	32
	.align 32
	.type	.Lubsan_data632, @object
	.size	.Lubsan_data632, 32
.Lubsan_data632:
	.quad	.LC0
	.long	368
	.long	55
	.quad	.Lubsan_type4
	.byte	3
	.byte	4
	.zero	6
	.zero	32
	.align 32
	.type	.Lubsan_data633, @object
	.size	.Lubsan_data633, 32
.Lubsan_data633:
	.quad	.LC0
	.long	368
	.long	55
	.quad	.Lubsan_type4
	.byte	3
	.byte	3
	.zero	6
	.zero	32
	.section	.data.rel
	.align 32
	.type	.Lubsan_data634, @object
	.size	.Lubsan_data634, 40
.Lubsan_data634:
	.quad	.LC0
	.long	368
	.long	55
	.quad	.Lubsan_type3
	.quad	_ZTISo
	.byte	4
	.zero	7
	.zero	56
	.align 32
	.type	.Lubsan_data635, @object
	.size	.Lubsan_data635, 40
.Lubsan_data635:
	.quad	.LC0
	.long	372
	.long	11
	.quad	.Lubsan_type3
	.quad	_ZTISo
	.byte	4
	.zero	7
	.zero	56
	.section	.data.rel.local
	.align 32
	.type	.Lubsan_data636, @object
	.size	.Lubsan_data636, 32
.Lubsan_data636:
	.quad	.LC0
	.long	372
	.long	17
	.quad	.Lubsan_type4
	.byte	3
	.byte	2
	.zero	6
	.zero	32
	.align 32
	.type	.Lubsan_data637, @object
	.size	.Lubsan_data637, 32
.Lubsan_data637:
	.quad	.LC0
	.long	372
	.long	55
	.quad	.Lubsan_type4
	.byte	3
	.byte	4
	.zero	6
	.zero	32
	.align 32
	.type	.Lubsan_data638, @object
	.size	.Lubsan_data638, 32
.Lubsan_data638:
	.quad	.LC0
	.long	372
	.long	55
	.quad	.Lubsan_type4
	.byte	3
	.byte	3
	.zero	6
	.zero	32
	.section	.data.rel
	.align 32
	.type	.Lubsan_data639, @object
	.size	.Lubsan_data639, 40
.Lubsan_data639:
	.quad	.LC0
	.long	372
	.long	55
	.quad	.Lubsan_type3
	.quad	_ZTISo
	.byte	4
	.zero	7
	.zero	56
	.align 32
	.type	.Lubsan_data640, @object
	.size	.Lubsan_data640, 40
.Lubsan_data640:
	.quad	.LC0
	.long	375
	.long	11
	.quad	.Lubsan_type3
	.quad	_ZTISo
	.byte	4
	.zero	7
	.zero	56
	.section	.data.rel.local
	.align 32
	.type	.Lubsan_data641, @object
	.size	.Lubsan_data641, 32
.Lubsan_data641:
	.quad	.LC0
	.long	375
	.long	17
	.quad	.Lubsan_type4
	.byte	3
	.byte	2
	.zero	6
	.zero	32
	.align 32
	.type	.Lubsan_data642, @object
	.size	.Lubsan_data642, 32
.Lubsan_data642:
	.quad	.LC0
	.long	375
	.long	56
	.quad	.Lubsan_type4
	.byte	3
	.byte	4
	.zero	6
	.zero	32
	.align 32
	.type	.Lubsan_data643, @object
	.size	.Lubsan_data643, 32
.Lubsan_data643:
	.quad	.LC0
	.long	375
	.long	56
	.quad	.Lubsan_type4
	.byte	3
	.byte	3
	.zero	6
	.zero	32
	.section	.data.rel
	.align 32
	.type	.Lubsan_data644, @object
	.size	.Lubsan_data644, 40
.Lubsan_data644:
	.quad	.LC0
	.long	375
	.long	56
	.quad	.Lubsan_type3
	.quad	_ZTISo
	.byte	4
	.zero	7
	.zero	56
	.align 32
	.type	.Lubsan_data645, @object
	.size	.Lubsan_data645, 40
.Lubsan_data645:
	.quad	.LC0
	.long	378
	.long	11
	.quad	.Lubsan_type3
	.quad	_ZTISo
	.byte	4
	.zero	7
	.zero	56
	.section	.data.rel.local
	.align 32
	.type	.Lubsan_data646, @object
	.size	.Lubsan_data646, 32
.Lubsan_data646:
	.quad	.LC0
	.long	378
	.long	17
	.quad	.Lubsan_type4
	.byte	3
	.byte	2
	.zero	6
	.zero	32
	.align 32
	.type	.Lubsan_data647, @object
	.size	.Lubsan_data647, 32
.Lubsan_data647:
	.quad	.LC0
	.long	378
	.long	56
	.quad	.Lubsan_type4
	.byte	3
	.byte	4
	.zero	6
	.zero	32
	.align 32
	.type	.Lubsan_data648, @object
	.size	.Lubsan_data648, 32
.Lubsan_data648:
	.quad	.LC0
	.long	378
	.long	56
	.quad	.Lubsan_type4
	.byte	3
	.byte	3
	.zero	6
	.zero	32
	.section	.data.rel
	.align 32
	.type	.Lubsan_data649, @object
	.size	.Lubsan_data649, 40
.Lubsan_data649:
	.quad	.LC0
	.long	378
	.long	56
	.quad	.Lubsan_type3
	.quad	_ZTISo
	.byte	4
	.zero	7
	.zero	56
	.align 32
	.type	.Lubsan_data650, @object
	.size	.Lubsan_data650, 40
.Lubsan_data650:
	.quad	.LC0
	.long	385
	.long	11
	.quad	.Lubsan_type3
	.quad	_ZTISo
	.byte	4
	.zero	7
	.zero	56
	.section	.data.rel.local
	.align 32
	.type	.Lubsan_data651, @object
	.size	.Lubsan_data651, 32
.Lubsan_data651:
	.quad	.LC0
	.long	385
	.long	17
	.quad	.Lubsan_type5
	.byte	3
	.byte	4
	.zero	6
	.zero	32
	.align 32
	.type	.Lubsan_data652, @object
	.size	.Lubsan_data652, 32
.Lubsan_data652:
	.quad	.LC0
	.long	385
	.long	17
	.quad	.Lubsan_type5
	.byte	3
	.byte	3
	.zero	6
	.zero	32
	.section	.data.rel
	.align 32
	.type	.Lubsan_data653, @object
	.size	.Lubsan_data653, 40
.Lubsan_data653:
	.quad	.LC0
	.long	385
	.long	17
	.quad	.Lubsan_type3
	.quad	_ZTISo
	.byte	4
	.zero	7
	.zero	56
	.section	.data.rel.local
	.align 32
	.type	.Lubsan_data654, @object
	.size	.Lubsan_data654, 32
.Lubsan_data654:
	.quad	.LC0
	.long	385
	.long	23
	.quad	.Lubsan_type4
	.byte	3
	.byte	2
	.zero	6
	.zero	32
	.align 32
	.type	.Lubsan_data655, @object
	.size	.Lubsan_data655, 32
.Lubsan_data655:
	.quad	.LC0
	.long	385
	.long	55
	.quad	.Lubsan_type4
	.byte	3
	.byte	4
	.zero	6
	.zero	32
	.align 32
	.type	.Lubsan_data656, @object
	.size	.Lubsan_data656, 32
.Lubsan_data656:
	.quad	.LC0
	.long	385
	.long	55
	.quad	.Lubsan_type4
	.byte	3
	.byte	3
	.zero	6
	.zero	32
	.section	.data.rel
	.align 32
	.type	.Lubsan_data657, @object
	.size	.Lubsan_data657, 40
.Lubsan_data657:
	.quad	.LC0
	.long	385
	.long	55
	.quad	.Lubsan_type3
	.quad	_ZTISo
	.byte	4
	.zero	7
	.zero	56
	.section	.data.rel.local
	.align 32
	.type	.Lubsan_data658, @object
	.size	.Lubsan_data658, 16
.Lubsan_data658:
	.quad	.LC0
	.long	429
	.long	29
	.zero	48
	.align 32
	.type	.Lubsan_data659, @object
	.size	.Lubsan_data659, 32
.Lubsan_data659:
	.quad	.LC0
	.long	429
	.long	29
	.quad	.Lubsan_type1
	.byte	3
	.byte	0
	.zero	6
	.zero	32
	.align 32
	.type	.Lubsan_data660, @object
	.size	.Lubsan_data660, 16
.Lubsan_data660:
	.quad	.LC0
	.long	429
	.long	29
	.zero	48
	.align 32
	.type	.Lubsan_data661, @object
	.size	.Lubsan_data661, 32
.Lubsan_data661:
	.quad	.LC0
	.long	429
	.long	29
	.quad	.Lubsan_type1
	.byte	3
	.byte	0
	.zero	6
	.zero	32
	.align 32
	.type	.Lubsan_data662, @object
	.size	.Lubsan_data662, 32
.Lubsan_data662:
	.quad	.LC0
	.long	543
	.long	17
	.quad	.Lubsan_type6
	.byte	3
	.byte	2
	.zero	6
	.zero	32
	.align 32
	.type	.Lubsan_data663, @object
	.size	.Lubsan_data663, 32
.Lubsan_data663:
	.quad	.LC0
	.long	544
	.long	17
	.quad	.Lubsan_type6
	.byte	3
	.byte	2
	.zero	6
	.zero	32
	.align 32
	.type	.Lubsan_data664, @object
	.size	.Lubsan_data664, 32
.Lubsan_data664:
	.quad	.LC0
	.long	545
	.long	17
	.quad	.Lubsan_type6
	.byte	3
	.byte	2
	.zero	6
	.zero	32
	.align 32
	.type	.Lubsan_data665, @object
	.size	.Lubsan_data665, 32
.Lubsan_data665:
	.quad	.LC0
	.long	546
	.long	17
	.quad	.Lubsan_type6
	.byte	3
	.byte	2
	.zero	6
	.zero	32
	.align 32
	.type	.Lubsan_data666, @object
	.size	.Lubsan_data666, 32
.Lubsan_data666:
	.quad	.LC0
	.long	547
	.long	17
	.quad	.Lubsan_type6
	.byte	3
	.byte	2
	.zero	6
	.zero	32
	.align 32
	.type	.Lubsan_data667, @object
	.size	.Lubsan_data667, 32
.Lubsan_data667:
	.quad	.LC0
	.long	548
	.long	17
	.quad	.Lubsan_type6
	.byte	3
	.byte	2
	.zero	6
	.zero	32
	.align 32
	.type	.Lubsan_data668, @object
	.size	.Lubsan_data668, 32
.Lubsan_data668:
	.quad	.LC0
	.long	549
	.long	17
	.quad	.Lubsan_type6
	.byte	3
	.byte	2
	.zero	6
	.zero	32
	.align 32
	.type	.Lubsan_data669, @object
	.size	.Lubsan_data669, 32
.Lubsan_data669:
	.quad	.LC0
	.long	550
	.long	17
	.quad	.Lubsan_type6
	.byte	3
	.byte	2
	.zero	6
	.zero	32
	.align 32
	.type	.Lubsan_data670, @object
	.size	.Lubsan_data670, 32
.Lubsan_data670:
	.quad	.LC0
	.long	551
	.long	17
	.quad	.Lubsan_type6
	.byte	3
	.byte	2
	.zero	6
	.zero	32
	.align 32
	.type	.Lubsan_data671, @object
	.size	.Lubsan_data671, 32
.Lubsan_data671:
	.quad	.LC0
	.long	552
	.long	17
	.quad	.Lubsan_type6
	.byte	3
	.byte	2
	.zero	6
	.zero	32
	.align 32
	.type	.Lubsan_data672, @object
	.size	.Lubsan_data672, 32
.Lubsan_data672:
	.quad	.LC0
	.long	553
	.long	17
	.quad	.Lubsan_type6
	.byte	3
	.byte	2
	.zero	6
	.zero	32
	.align 32
	.type	.Lubsan_data673, @object
	.size	.Lubsan_data673, 32
.Lubsan_data673:
	.quad	.LC0
	.long	554
	.long	17
	.quad	.Lubsan_type6
	.byte	3
	.byte	2
	.zero	6
	.zero	32
	.align 32
	.type	.Lubsan_data674, @object
	.size	.Lubsan_data674, 32
.Lubsan_data674:
	.quad	.LC0
	.long	555
	.long	17
	.quad	.Lubsan_type6
	.byte	3
	.byte	2
	.zero	6
	.zero	32
	.align 32
	.type	.Lubsan_data675, @object
	.size	.Lubsan_data675, 32
.Lubsan_data675:
	.quad	.LC0
	.long	556
	.long	17
	.quad	.Lubsan_type6
	.byte	3
	.byte	2
	.zero	6
	.zero	32
	.align 32
	.type	.Lubsan_data676, @object
	.size	.Lubsan_data676, 32
.Lubsan_data676:
	.quad	.LC0
	.long	557
	.long	17
	.quad	.Lubsan_type6
	.byte	3
	.byte	2
	.zero	6
	.zero	32
	.align 32
	.type	.Lubsan_data677, @object
	.size	.Lubsan_data677, 32
.Lubsan_data677:
	.quad	.LC0
	.long	558
	.long	17
	.quad	.Lubsan_type6
	.byte	3
	.byte	2
	.zero	6
	.zero	32
	.align 32
	.type	.Lubsan_data678, @object
	.size	.Lubsan_data678, 32
.Lubsan_data678:
	.quad	.LC0
	.long	559
	.long	17
	.quad	.Lubsan_type6
	.byte	3
	.byte	2
	.zero	6
	.zero	32
	.align 32
	.type	.Lubsan_data679, @object
	.size	.Lubsan_data679, 32
.Lubsan_data679:
	.quad	.LC0
	.long	560
	.long	17
	.quad	.Lubsan_type6
	.byte	3
	.byte	2
	.zero	6
	.zero	32
	.align 32
	.type	.Lubsan_data680, @object
	.size	.Lubsan_data680, 32
.Lubsan_data680:
	.quad	.LC0
	.long	561
	.long	17
	.quad	.Lubsan_type6
	.byte	3
	.byte	2
	.zero	6
	.zero	32
	.align 32
	.type	.Lubsan_data681, @object
	.size	.Lubsan_data681, 32
.Lubsan_data681:
	.quad	.LC0
	.long	562
	.long	17
	.quad	.Lubsan_type6
	.byte	3
	.byte	2
	.zero	6
	.zero	32
	.globl	__asan_stack_malloc_6
	.section	.rodata
	.align 8
.LC2:
	.ascii	"95 32 1 9 <unknown> 48 1 9 <unknown> 64 1 9 <unknown> 80 1 9"
	.ascii	" <unknown> 96 1 9 <unknown> 112 1 9 <unknown> 128 1 9 <unkno"
	.ascii	"wn> 144 1 9 <unknown> 160 1 9 <unknown> 176 1 9 <unknown> 19"
	.ascii	"2 1 9 <unknown> 208 1 9 <unknown> 224 1 9 <unknown> 240 1 9 "
	.ascii	"<unknown> 256 1 9 <unknown> 272 1 9 <unknown> 288 1 9 <unkno"
	.ascii	"wn> 304 1 9 <unknown> 320 1 9 <unknown> 336 1 9 <unknown> 35"
	.ascii	"2 1 9 <unknown> 368 1 9 <unknown> 384 1 9 <unknown> 400 1 9 "
	.ascii	"<unknown> 416 1 9 <unknown> 432 1 9 <unknown> 448 1 9 <unkno"
	.ascii	"wn> 464 1 9 <unknown> 480 1 9 <unknown> 496 1 9 <unknown> 51"
	.ascii	"2 1 9 <unknown> 528 1 9 <unknown> 544 1 9 <unknown> 560 1 9 "
	.ascii	"<unknown> 576 1 9 <unknown> 592 1 9 <unknown> 608 1 9 <unkno"
	.ascii	"wn> 624 1 9 <unknown> 640 1 9 <unknown> 656 1 9 <unknown> 67"
	.ascii	"2 1 9 <unknown> 688 1 9 <unknown> 704 1 9 <unknown> 720 1 9 "
	.ascii	"<unknown> 736 4 9 maxRow:47 752 4 9 maxCol:48 768 4 11 nextR"
	.ascii	"ow:220 784 4 11 nextCol:221 800 8 7 map:305 832 8 13 mapResi"
	.ascii	"ze:318 864 12 9 player:49 896 32 9 <unknown> 960 32 9 <unkno"
	.ascii	"wn> 1024 32 9 <unknown> 1088 32 9 <unknown> 1152 32 9 <unkno"
	.ascii	"wn> 1216 32 9 <unknown> 1280 32 9 <unknown> 1344 32 9 <unkno"
	.ascii	"wn> 1408 32 9 <unknown> 1472 32 9 <unknown> 1536 32 9 <unkno"
	.ascii	"wn> 1600 32 9 <unknown> 1664 32 9 <unknown> 1728 32 9 <unkno"
	.ascii	"wn> 1792 32 9 <unknown> 1856 32 9 <unknown> 1920 32 9 <unkno"
	.ascii	"wn> 1984 32 9 <unknown> 2048 32 9 <unknown> 2112 32 9 <unkno"
	.ascii	"wn> 2176 32 9 <unknown> 2240 32 9 <unknown> 2304 32 9 <unkno"
	.ascii	"wn> 2368 32 9 <unknown> 2432 32 9 <unknown> 2496 32 9 <unkno"
	.ascii	"wn> 2560 32 9 <unknown> 2624 32 9 <unknown> 2688 32 9 <unkno"
	.ascii	"wn> 2752 32 9 <unknown> 2816 32 9 <unknown> 288"
	.string	"0 32 9 <unknown> 2944 32 9 <unknown> 3008 32 9 <unknown> 3072 32 9 <unknown> 3136 32 9 <unknown> 3200 32 9 <unknown> 3264 32 9 <unknown> 3328 32 9 <unknown> 3392 32 9 <unknown> 3456 32 9 <unknown> 3520 32 9 <unknown> 3584 32 9 <unknown> 3648 32 9 <unknown>"
	.globl	__asan_stack_free_6
	.align 32
.LC3:
	.string	"-------loadLevel-------"
	.zero	40
	.align 32
.LC4:
	.string	"[START] loadLevel() happy path"
	.zero	33
	.align 32
.LC5:
	.string	"example.txt"
	.zero	52
	.section	.data.rel.local
	.align 32
	.type	.Lubsan_data682, @object
	.size	.Lubsan_data682, 24
.Lubsan_data682:
	.quad	.LC0
	.long	166
	.long	9
	.quad	.Lubsan_type2
	.zero	40
	.section	.rodata
	.align 32
.LC6:
	.string	"[START] loadLevel() nonexistent file"
	.zero	59
	.align 32
.LC7:
	.string	"example2.txt"
	.zero	51
	.align 32
.LC8:
	.string	"[START] loadLevel() nonnumeric maxRow"
	.zero	58
	.align 32
.LC9:
	.string	"loadLevel_1.txt"
	.zero	48
	.align 32
.LC10:
	.string	"[START] loadLevel() maxRow < 1"
	.zero	33
	.align 32
.LC11:
	.string	"loadLevel_3.txt"
	.zero	48
	.align 32
.LC12:
	.string	"[START] loadLevel() nonnumeric maxCol"
	.zero	58
	.align 32
.LC13:
	.string	"loadLevel_2.txt"
	.zero	48
	.align 32
.LC14:
	.string	"[START] loadLevel() maxCol < 1"
	.zero	33
	.align 32
.LC15:
	.string	"loadLevel_4.txt"
	.zero	48
	.align 32
.LC16:
	.string	"[START] loadLevel() more than 214748367 tiles"
	.zero	50
	.align 32
.LC17:
	.string	"loadLevel_5.txt"
	.zero	48
	.align 32
.LC18:
	.string	"[START] loadLevel() player row nonnumeric"
	.zero	54
	.align 32
.LC19:
	.string	"loadLevel_6.txt"
	.zero	48
	.align 32
.LC20:
	.string	"[START] loadLevel() player row < 0"
	.zero	61
	.align 32
.LC21:
	.string	"loadLevel_7.txt"
	.zero	48
	.align 32
.LC22:
	.string	"[START] loadLevel() player row is more than maxRow"
	.zero	45
	.align 32
.LC23:
	.string	"loadLevel_8.txt"
	.zero	48
	.align 32
.LC24:
	.string	"[START] loadLevel() player col nonnumeric"
	.zero	54
	.align 32
.LC25:
	.string	"loadLevel_9.txt"
	.zero	48
	.align 32
.LC26:
	.string	"[START] loadLevel() player col < 0"
	.zero	61
	.align 32
.LC27:
	.string	"loadLevel_10.txt"
	.zero	47
	.align 32
.LC28:
	.string	"[START] loadLevel() player col is more than maxCol"
	.zero	45
	.align 32
.LC29:
	.string	"loadLevel_11.txt"
	.zero	47
	.align 32
.LC30:
	.string	"[START] loadLevel() a way out does not exist"
	.zero	51
	.align 32
.LC31:
	.string	"loadLevel_12.txt"
	.zero	47
	.align 32
.LC32:
	.string	"[START] loadLevel() has an invalid symbol"
	.zero	54
	.align 32
.LC33:
	.string	"loadLevel_13.txt"
	.zero	47
	.align 32
.LC34:
	.string	"[START] loadLevel() has not enough tiles"
	.zero	55
	.align 32
.LC35:
	.string	"loadLevel_14.txt"
	.zero	47
	.align 32
.LC36:
	.string	"[START] loadLevel() has too many tiles"
	.zero	57
	.align 32
.LC37:
	.string	"loadLevel_15.txt"
	.zero	47
	.align 32
.LC38:
	.string	"-------getDirection-------"
	.zero	37
	.align 32
.LC39:
	.string	"[START] getDirection() wasdeq"
	.zero	34
	.align 32
.LC40:
	.string	"[START] getDirection() WASDEQ"
	.zero	34
	.align 32
.LC41:
	.string	"[START] getDirection() invalid char"
	.zero	60
	.align 32
.LC42:
	.string	"-------deleteMap-------"
	.zero	40
	.align 32
.LC43:
	.string	"[START] deleteMap() happy path"
	.zero	33
	.align 32
.LC44:
	.string	"[START] deleteMap() nullptr map"
	.zero	32
	.align 32
.LC45:
	.string	"deleteMap_1.txt"
	.zero	48
	.align 32
.LC46:
	.string	"-------resizeMap-------"
	.zero	40
	.align 32
.LC47:
	.string	"[START] resizeMap() happy path"
	.zero	33
	.align 32
.LC48:
	.string	"BEFORE: maxRow="
	.zero	48
	.align 32
.LC49:
	.string	" & maxCol="
	.zero	53
	.align 32
.LC50:
	.string	"AFTER: maxRow="
	.zero	49
	.align 32
.LC51:
	.string	"[START] resizeMap() neg row"
	.zero	36
	.align 32
.LC52:
	.string	"resizeMap_1.txt"
	.zero	48
	.align 32
.LC53:
	.string	"[START] resizeMap() neg col"
	.zero	36
	.align 32
.LC54:
	.string	"resizeMap_2.txt"
	.zero	48
	.align 32
.LC55:
	.string	"[START] resizeMap() nullptr map ('i')"
	.zero	58
	.align 32
.LC56:
	.string	"resizeMap_3.txt"
	.zero	48
	.align 32
.LC57:
	.string	"-------doPlayerMove-------"
	.zero	37
	.align 32
.LC58:
	.string	"[START] doPlayerMove() happy path"
	.zero	62
	.align 32
.LC59:
	.string	"doPlayerMove_1.txt"
	.zero	45
	.align 32
.LC60:
	.string	"[START] doPlayerMove() col=1"
	.zero	35
	.align 32
.LC61:
	.string	"                             row=1"
	.zero	61
	.align 32
.LC62:
	.string	"                             row=0"
	.zero	61
	.align 32
.LC63:
	.string	"                             row=-1"
	.zero	60
	.align 32
.LC64:
	.string	"                             row=10"
	.zero	60
	.align 32
.LC65:
	.string	"[START] doPlayerMove() row=1"
	.zero	35
	.section	.data.rel.local
	.align 32
	.type	.Lubsan_data683, @object
	.size	.Lubsan_data683, 24
.Lubsan_data683:
	.quad	.LC0
	.long	428
	.long	9
	.quad	.Lubsan_type2
	.zero	40
	.section	.rodata
	.align 32
.LC66:
	.string	"doMonsterAttack_1.txt"
	.zero	42
	.align 32
.LC67:
	.string	"doMonsterAttack_2.txt"
	.zero	42
	.align 32
.LC68:
	.string	"doMonsterAttack_3.txt"
	.zero	42
	.align 32
.LC69:
	.string	"doMonsterAttack_4.txt"
	.zero	42
	.align 32
.LC70:
	.string	"doMonsterAttack_5.txt"
	.zero	42
	.align 32
.LC71:
	.string	"doMonsterAttack_6.txt"
	.zero	42
	.align 32
.LC72:
	.string	"doMonsterAttack_7.txt"
	.zero	42
	.align 32
.LC73:
	.string	"doMonsterAttack_8.txt"
	.zero	42
	.align 32
.LC74:
	.string	"doMonsterAttack_9.txt"
	.zero	42
	.align 32
.LC75:
	.string	"doMonsterAttack_10.txt"
	.zero	41
	.align 32
.LC76:
	.string	"doMonsterAttack_11.txt"
	.zero	41
	.align 32
.LC77:
	.string	"doMonsterAttack_12.txt"
	.zero	41
	.align 32
.LC78:
	.string	"doMonsterAttack_13.txt"
	.zero	41
	.align 32
.LC79:
	.string	"doMonsterAttack_14.txt"
	.zero	41
	.align 32
.LC80:
	.string	"doMonsterAttack_15.txt"
	.zero	41
	.align 32
.LC81:
	.string	"doMonsterAttack_16.txt"
	.zero	41
	.align 32
.LC82:
	.string	"doMonsterAttack_17.txt"
	.zero	41
	.align 32
.LC83:
	.string	"doMonsterAttack_18.txt"
	.zero	41
	.align 32
.LC84:
	.string	"doMonsterAttack_19.txt"
	.zero	41
	.align 32
.LC85:
	.string	"doMonsterAttack_20.txt"
	.zero	41
	.text
	.globl	main
	.type	main, @function
main:
.LASANPC1824:
.LFB1824:
	.loc 2 30 12
	.cfi_startproc
	.cfi_personality 0x9b,DW.ref.__gxx_personality_v0
	.cfi_lsda 0x1b,.LLSDA1824
	endbr64
	pushq	%rbp
	.cfi_def_cfa_offset 16
	.cfi_offset 6, -16
	movq	%rsp, %rbp
	.cfi_def_cfa_register 6
	pushq	%r15
	pushq	%r14
	pushq	%r13
	pushq	%r12
	pushq	%rbx
	subq	$3800, %rsp
	.cfi_offset 15, -24
	.cfi_offset 14, -32
	.cfi_offset 13, -40
	.cfi_offset 12, -48
	.cfi_offset 3, -56
	leaq	-3792(%rbp), %r13
	movq	%r13, -3832(%rbp)
	cmpl	$0, __asan_option_detect_stack_use_after_return(%rip)
	je	.L34
	movl	$3712, %edi
	call	__asan_stack_malloc_6@PLT
.LVL1:
	testq	%rax, %rax
	je	.L34
	movq	%rax, %r13
.L34:
	leaq	3744(%r13), %rax
	movq	%rax, %rbx
	movq	$1102416563, 0(%r13)
	leaq	.LC2(%rip), %rax
	movq	%rax, 8(%r13)
	leaq	.LASANPC1824(%rip), %rax
	movq	%rax, 16(%r13)
	movq	%r13, %r12
	shrq	$3, %r12
	movl	$-235802127, 2147450880(%r12)
	movl	$-234753535, 2147450884(%r12)
	movl	$-234753535, 2147450888(%r12)
	movl	$-234753535, 2147450892(%r12)
	movl	$-234753535, 2147450896(%r12)
	movl	$-234753535, 2147450900(%r12)
	movl	$-234753535, 2147450904(%r12)
	movl	$-234753535, 2147450908(%r12)
	movl	$-234753535, 2147450912(%r12)
	movl	$-234753535, 2147450916(%r12)
	movl	$-234753535, 2147450920(%r12)
	movl	$-234753535, 2147450924(%r12)
	movl	$-234753535, 2147450928(%r12)
	movl	$-234753535, 2147450932(%r12)
	movl	$-234753535, 2147450936(%r12)
	movl	$-234753535, 2147450940(%r12)
	movl	$-234753535, 2147450944(%r12)
	movl	$-234753535, 2147450948(%r12)
	movl	$-234753535, 2147450952(%r12)
	movl	$-234753535, 2147450956(%r12)
	movl	$-234753535, 2147450960(%r12)
	movl	$-234753535, 2147450964(%r12)
	movl	$-234753535, 2147450968(%r12)
	movl	$-234556924, 2147450972(%r12)
	movl	$-234556924, 2147450976(%r12)
	movl	$-218959360, 2147450980(%r12)
	movl	$-218959360, 2147450984(%r12)
	movl	$-219020288, 2147450988(%r12)
	movl	$-218959118, 2147450996(%r12)
	movl	$-218959118, 2147451004(%r12)
	movl	$-218959118, 2147451012(%r12)
	movl	$-218959118, 2147451020(%r12)
	movl	$-218959118, 2147451028(%r12)
	movl	$-218959118, 2147451036(%r12)
	movl	$-218959118, 2147451044(%r12)
	movl	$-218959118, 2147451052(%r12)
	movl	$-218959118, 2147451060(%r12)
	movl	$-218959118, 2147451068(%r12)
	movl	$-218959118, 2147451076(%r12)
	movl	$-218959118, 2147451084(%r12)
	movl	$-218959118, 2147451092(%r12)
	movl	$-218959118, 2147451100(%r12)
	movl	$-218959118, 2147451108(%r12)
	movl	$-218959118, 2147451116(%r12)
	movl	$-218959118, 2147451124(%r12)
	movl	$-218959118, 2147451132(%r12)
	movl	$-218959118, 2147451140(%r12)
	movl	$-218959118, 2147451148(%r12)
	movl	$-218959118, 2147451156(%r12)
	movl	$-218959118, 2147451164(%r12)
	movl	$-218959118, 2147451172(%r12)
	movl	$-218959118, 2147451180(%r12)
	movl	$-218959118, 2147451188(%r12)
	movl	$-218959118, 2147451196(%r12)
	movl	$-218959118, 2147451204(%r12)
	movl	$-218959118, 2147451212(%r12)
	movl	$-218959118, 2147451220(%r12)
	movl	$-218959118, 2147451228(%r12)
	movl	$-218959118, 2147451236(%r12)
	movl	$-218959118, 2147451244(%r12)
	movl	$-218959118, 2147451252(%r12)
	movl	$-218959118, 2147451260(%r12)
	movl	$-218959118, 2147451268(%r12)
	movl	$-218959118, 2147451276(%r12)
	movl	$-218959118, 2147451284(%r12)
	movl	$-218959118, 2147451292(%r12)
	movl	$-218959118, 2147451300(%r12)
	movl	$-218959118, 2147451308(%r12)
	movl	$-218959118, 2147451316(%r12)
	movl	$-218959118, 2147451324(%r12)
	movl	$-218959118, 2147451332(%r12)
	movl	$-202116109, 2147451340(%r12)
	.loc 2 30 12
	movq	%fs:40, %rax
	movq	%rax, -56(%rbp)
	xorl	%eax, %eax
	.loc 2 50 11
	leaq	_ZSt4cout(%rip), %rax
	movq	%rax, %rdx
	shrq	$3, %rdx
	addq	$2147450880, %rdx
	movzbl	(%rdx), %edx
	testb	%dl, %dl
	je	.L38
	movq	%rax, %rdi
	call	__asan_report_load8@PLT
.L38:
	movq	_ZSt4cout(%rip), %rax
	movq	%rax, %rdx
	movabsq	$-8638671864419, %rax
	xorq	%rdx, %rax
	movq	%rax, %rcx
	movabsq	$-7070675565921424023, %rax
	imulq	%rcx, %rax
	movq	%rax, %rcx
	salq	$47, %rcx
	xorq	%rdx, %rax
	xorq	%rax, %rcx
	movq	%rcx, %rdx
	movabsq	$-7070675565921424023, %rax
	imulq	%rdx, %rax
	movq	%rax, %rdx
	salq	$47, %rdx
	xorq	%rax, %rdx
	movabsq	$-7070675565921424023, %rax
	imulq	%rdx, %rax
	movq	%rax, %rdx
	andl	$127, %edx
	leaq	0(,%rdx,8), %rcx
	leaq	__ubsan_vptr_type_cache(%rip), %rdx
	movq	(%rcx,%rdx), %rdx
	cmpq	%rax, %rdx
	je	.L39
	movq	%rax, %rdx
	leaq	_ZSt4cout(%rip), %rsi
	leaq	.Lubsan_data331(%rip), %rdi
	call	__ubsan_handle_dynamic_type_cache_miss@PLT
.L39:
	movq	_ZSt4endlIcSt11char_traitsIcEERSt13basic_ostreamIT_T0_ES6_@GOTPCREL(%rip), %rax
	movq	%rax, %rsi
	leaq	_ZSt4cout(%rip), %rdi
.LEHB0:
	call	_ZNSolsEPFRSoS_E@PLT
	movq	%rax, %r14
	.loc 2 50 17
	movq	%r14, %rax
	testq	%r14, %r14
	je	.L40
	.loc 2 50 17 is_stmt 0 discriminator 1
	movq	%rax, %rdx
	andl	$7, %edx
	testq	%rdx, %rdx
	je	.L41
.L40:
	.loc 2 50 17
	movq	%rax, %rsi
	leaq	.Lubsan_data332(%rip), %rdi
	call	__ubsan_handle_type_mismatch_v1@PLT
.L41:
	.loc 2 50 17 discriminator 1
	leaq	.LC3(%rip), %rsi
	movq	%r14, %rdi
	call	_ZStlsISt11char_traitsIcEERSt13basic_ostreamIcT_ES5_PKc@PLT
	movq	%rax, %r14
	.loc 2 50 44 is_stmt 1 discriminator 1
	movq	%r14, %rax
	testq	%r14, %r14
	je	.L42
	.loc 2 50 44 is_stmt 0 discriminator 2
	movq	%rax, %rdx
	andl	$7, %edx
	testq	%rdx, %rdx
	je	.L43
.L42:
	.loc 2 50 44
	movq	%rax, %rsi
	leaq	.Lubsan_data333(%rip), %rdi
	call	__ubsan_handle_type_mismatch_v1@PLT
.L43:
	.loc 2 50 44 discriminator 2
	movq	%r14, %rax
	testq	%r14, %r14
	je	.L44
	movq	%rax, %rdx
	andl	$7, %edx
	testq	%rdx, %rdx
	je	.L45
.L44:
	.loc 2 50 44
	movq	%rax, %rsi
	leaq	.Lubsan_data334(%rip), %rdi
	call	__ubsan_handle_type_mismatch_v1@PLT
.L45:
	.loc 2 50 44 discriminator 2
	movq	%r14, %rax
	movq	%rax, %rdx
	shrq	$3, %rdx
	addq	$2147450880, %rdx
	movzbl	(%rdx), %edx
	testb	%dl, %dl
	je	.L46
	.loc 2 50 44
	movq	%rax, %rdi
	call	__asan_report_load8@PLT
.L46:
	.loc 2 50 44 discriminator 2
	movq	(%r14), %rax
	movq	%rax, %rdx
	movabsq	$-8638671864419, %rax
	xorq	%rdx, %rax
	movq	%rax, %rcx
	movabsq	$-7070675565921424023, %rax
	imulq	%rcx, %rax
	movq	%rax, %rcx
	salq	$47, %rcx
	xorq	%rdx, %rax
	xorq	%rax, %rcx
	movq	%rcx, %rdx
	movabsq	$-7070675565921424023, %rax
	imulq	%rdx, %rax
	movq	%rax, %rdx
	salq	$47, %rdx
	xorq	%rax, %rdx
	movabsq	$-7070675565921424023, %rax
	imulq	%rdx, %rax
	movq	%rax, %rdx
	andl	$127, %edx
	leaq	0(,%rdx,8), %rcx
	leaq	__ubsan_vptr_type_cache(%rip), %rdx
	movq	(%rcx,%rdx), %rdx
	cmpq	%rax, %rdx
	je	.L47
	.loc 2 50 44
	movq	%rax, %rdx
	movq	%r14, %rsi
	leaq	.Lubsan_data335(%rip), %rdi
	call	__ubsan_handle_dynamic_type_cache_miss@PLT
.L47:
	.loc 2 50 44 discriminator 2
	movq	_ZSt4endlIcSt11char_traitsIcEERSt13basic_ostreamIT_T0_ES6_@GOTPCREL(%rip), %rax
	movq	%rax, %rsi
	movq	%r14, %rdi
	call	_ZNSolsEPFRSoS_E@PLT
	movq	%rax, %r14
	.loc 2 50 50 is_stmt 1 discriminator 2
	movq	%r14, %rax
	testq	%r14, %r14
	je	.L48
	.loc 2 50 50 is_stmt 0 discriminator 3
	movq	%rax, %rdx
	andl	$7, %edx
	testq	%rdx, %rdx
	je	.L49
.L48:
	.loc 2 50 50
	movq	%rax, %rsi
	leaq	.Lubsan_data336(%rip), %rdi
	call	__ubsan_handle_type_mismatch_v1@PLT
.L49:
	.loc 2 50 50 discriminator 3
	movq	%r14, %rax
	testq	%r14, %r14
	je	.L50
	movq	%rax, %rdx
	andl	$7, %edx
	testq	%rdx, %rdx
	je	.L51
.L50:
	.loc 2 50 50
	movq	%rax, %rsi
	leaq	.Lubsan_data337(%rip), %rdi
	call	__ubsan_handle_type_mismatch_v1@PLT
.L51:
	.loc 2 50 50 discriminator 3
	movq	%r14, %rax
	movq	%rax, %rdx
	shrq	$3, %rdx
	addq	$2147450880, %rdx
	movzbl	(%rdx), %edx
	testb	%dl, %dl
	je	.L52
	.loc 2 50 50
	movq	%rax, %rdi
	call	__asan_report_load8@PLT
.L52:
	.loc 2 50 50 discriminator 3
	movq	(%r14), %rax
	movq	%rax, %rdx
	movabsq	$-8638671864419, %rax
	xorq	%rdx, %rax
	movq	%rax, %rcx
	movabsq	$-7070675565921424023, %rax
	imulq	%rcx, %rax
	movq	%rax, %rcx
	salq	$47, %rcx
	xorq	%rdx, %rax
	xorq	%rax, %rcx
	movq	%rcx, %rdx
	movabsq	$-7070675565921424023, %rax
	imulq	%rdx, %rax
	movq	%rax, %rdx
	salq	$47, %rdx
	xorq	%rax, %rdx
	movabsq	$-7070675565921424023, %rax
	imulq	%rdx, %rax
	movq	%rax, %rdx
	andl	$127, %edx
	leaq	0(,%rdx,8), %rcx
	leaq	__ubsan_vptr_type_cache(%rip), %rdx
	movq	(%rcx,%rdx), %rdx
	cmpq	%rax, %rdx
	je	.L53
	.loc 2 50 50
	movq	%rax, %rdx
	movq	%r14, %rsi
	leaq	.Lubsan_data338(%rip), %rdi
	call	__ubsan_handle_dynamic_type_cache_miss@PLT
.L53:
	.loc 2 50 50 discriminator 3
	movq	_ZSt4endlIcSt11char_traitsIcEERSt13basic_ostreamIT_T0_ES6_@GOTPCREL(%rip), %rax
	movq	%rax, %rsi
	movq	%r14, %rdi
	call	_ZNSolsEPFRSoS_E@PLT
	.loc 2 51 13 is_stmt 1 discriminator 3
	leaq	_ZSt4cout(%rip), %rax
	movq	%rax, %rdx
	shrq	$3, %rdx
	addq	$2147450880, %rdx
	movzbl	(%rdx), %edx
	testb	%dl, %dl
	je	.L54
	.loc 2 51 13 is_stmt 0
	movq	%rax, %rdi
	call	__asan_report_load8@PLT
.L54:
	movq	_ZSt4cout(%rip), %rax
	movq	%rax, %rdx
	movabsq	$-8638671864419, %rax
	xorq	%rdx, %rax
	movq	%rax, %rcx
	movabsq	$-7070675565921424023, %rax
	imulq	%rcx, %rax
	movq	%rax, %rcx
	salq	$47, %rcx
	xorq	%rdx, %rax
	xorq	%rax, %rcx
	movq	%rcx, %rdx
	movabsq	$-7070675565921424023, %rax
	imulq	%rdx, %rax
	movq	%rax, %rdx
	salq	$47, %rdx
	xorq	%rax, %rdx
	movabsq	$-7070675565921424023, %rax
	imulq	%rdx, %rax
	movq	%rax, %rdx
	andl	$127, %edx
	leaq	0(,%rdx,8), %rcx
	leaq	__ubsan_vptr_type_cache(%rip), %rdx
	movq	(%rcx,%rdx), %rdx
	cmpq	%rax, %rdx
	je	.L55
	movq	%rax, %rdx
	leaq	_ZSt4cout(%rip), %rsi
	leaq	.Lubsan_data339(%rip), %rdi
	call	__ubsan_handle_dynamic_type_cache_miss@PLT
.L55:
	movq	_ZSt4endlIcSt11char_traitsIcEERSt13basic_ostreamIT_T0_ES6_@GOTPCREL(%rip), %rax
	movq	%rax, %rsi
	leaq	_ZSt4cout(%rip), %rdi
	call	_ZNSolsEPFRSoS_E@PLT
	movq	%rax, %r14
	.loc 2 51 19 is_stmt 1
	movq	%r14, %rax
	testq	%r14, %r14
	je	.L56
	.loc 2 51 19 is_stmt 0 discriminator 1
	movq	%rax, %rdx
	andl	$7, %edx
	testq	%rdx, %rdx
	je	.L57
.L56:
	.loc 2 51 19
	movq	%rax, %rsi
	leaq	.Lubsan_data340(%rip), %rdi
	call	__ubsan_handle_type_mismatch_v1@PLT
.L57:
	.loc 2 51 19 discriminator 1
	leaq	.LC4(%rip), %rsi
	movq	%r14, %rdi
	call	_ZStlsISt11char_traitsIcEERSt13basic_ostreamIcT_ES5_PKc@PLT
	movq	%rax, %r14
	.loc 2 51 53 is_stmt 1 discriminator 1
	movq	%r14, %rax
	testq	%r14, %r14
	je	.L58
	.loc 2 51 53 is_stmt 0 discriminator 2
	movq	%rax, %rdx
	andl	$7, %edx
	testq	%rdx, %rdx
	je	.L59
.L58:
	.loc 2 51 53
	movq	%rax, %rsi
	leaq	.Lubsan_data341(%rip), %rdi
	call	__ubsan_handle_type_mismatch_v1@PLT
.L59:
	.loc 2 51 53 discriminator 2
	movq	%r14, %rax
	testq	%r14, %r14
	je	.L60
	movq	%rax, %rdx
	andl	$7, %edx
	testq	%rdx, %rdx
	je	.L61
.L60:
	.loc 2 51 53
	movq	%rax, %rsi
	leaq	.Lubsan_data342(%rip), %rdi
	call	__ubsan_handle_type_mismatch_v1@PLT
.L61:
	.loc 2 51 53 discriminator 2
	movq	%r14, %rax
	movq	%rax, %rdx
	shrq	$3, %rdx
	addq	$2147450880, %rdx
	movzbl	(%rdx), %edx
	testb	%dl, %dl
	je	.L62
	.loc 2 51 53
	movq	%rax, %rdi
	call	__asan_report_load8@PLT
.L62:
	.loc 2 51 53 discriminator 2
	movq	(%r14), %rax
	movq	%rax, %rdx
	movabsq	$-8638671864419, %rax
	xorq	%rdx, %rax
	movq	%rax, %rcx
	movabsq	$-7070675565921424023, %rax
	imulq	%rcx, %rax
	movq	%rax, %rcx
	salq	$47, %rcx
	xorq	%rdx, %rax
	xorq	%rax, %rcx
	movq	%rcx, %rdx
	movabsq	$-7070675565921424023, %rax
	imulq	%rdx, %rax
	movq	%rax, %rdx
	salq	$47, %rdx
	xorq	%rax, %rdx
	movabsq	$-7070675565921424023, %rax
	imulq	%rdx, %rax
	movq	%rax, %rdx
	andl	$127, %edx
	leaq	0(,%rdx,8), %rcx
	leaq	__ubsan_vptr_type_cache(%rip), %rdx
	movq	(%rcx,%rdx), %rdx
	cmpq	%rax, %rdx
	je	.L63
	.loc 2 51 53
	movq	%rax, %rdx
	movq	%r14, %rsi
	leaq	.Lubsan_data343(%rip), %rdi
	call	__ubsan_handle_dynamic_type_cache_miss@PLT
.L63:
	.loc 2 51 53 discriminator 2
	movq	_ZSt4endlIcSt11char_traitsIcEERSt13basic_ostreamIT_T0_ES6_@GOTPCREL(%rip), %rax
	movq	%rax, %rsi
	movq	%r14, %rdi
	call	_ZNSolsEPFRSoS_E@PLT
.LEHE0:
	.loc 2 52 29 is_stmt 1 discriminator 2
	leaq	-3712(%rbx), %rax
	movq	%rax, %rdi
	call	_ZNSaIcEC1Ev@PLT
	leaq	-3712(%rbx), %rdx
	leaq	-2848(%rbx), %rax
	leaq	.LC5(%rip), %rsi
	movq	%rax, %rdi
.LEHB1:
	call	_ZNSt7__cxx1112basic_stringIcSt11char_traitsIcESaIcEEC1IS3_EEPKcRKS3_
.LEHE1:
	leaq	-2848(%rbx), %r14
	movq	%r14, %rax
	testq	%r14, %r14
	je	.L64
	movq	%rax, %rdx
	andl	$7, %edx
	testq	%rdx, %rdx
	je	.L65
.L64:
	.loc 2 52 29 is_stmt 0
	movq	%rax, %rsi
	leaq	.Lubsan_data344(%rip), %rdi
	call	__ubsan_handle_type_mismatch_v1@PLT
.L65:
	.loc 2 52 29 discriminator 2
	leaq	-2880(%rbx), %rcx
	leaq	-2992(%rbx), %rdx
	leaq	-3008(%rbx), %rax
	movq	%rax, %rsi
	movq	%r14, %rdi
.LEHB2:
	call	_Z9loadLevelRKNSt7__cxx1112basic_stringIcSt11char_traitsIcESaIcEEERiS7_R6Player@PLT
.LEHE2:
	movq	%rax, -3808(%rbp)
	leaq	-2848(%rbx), %rax
	movq	%rax, %rdi
	call	_ZNSt7__cxx1112basic_stringIcSt11char_traitsIcESaIcEED1Ev@PLT
	leaq	-2848(%rbx), %rax
	shrq	$3, %rax
	addq	$2147450880, %rax
	movl	$-117901064, (%rax)
	leaq	-3712(%rbx), %rax
	movq	%rax, %rdi
	call	_ZNSaIcED1Ev@PLT
	leaq	-3712(%rbx), %rax
	shrq	$3, %rax
	addq	$2147450880, %rax
	movb	$-8, (%rax)
.LBB11:
	.loc 2 165 5 is_stmt 1 discriminator 2
	cmpq	$0, -3808(%rbp)
	je	.L66
.LBB12:
.LBB13:
	.loc 2 166 18
	movl	$0, -3816(%rbp)
.L83:
	.loc 2 166 31 discriminator 1
	cmpl	$4, -3816(%rbp)
	jg	.L67
	.loc 2 167 28
	movl	-3816(%rbp), %eax
	cltq
	.loc 2 167 31
	leaq	0(,%rax,8), %r14
	movq	-3808(%rbp), %rdx
	leaq	(%rdx,%r14), %rax
	movq	%r14, %rcx
	notq	%rcx
	shrq	$63, %rcx
	testb	%cl, %cl
	je	.L68
	cmpq	%rdx, %rax
	jnb	.L69
.L70:
	movq	-3808(%rbp), %rcx
	movq	%rax, %rdx
	movq	%rcx, %rsi
	leaq	.Lubsan_data345(%rip), %rdi
	call	__ubsan_handle_pointer_overflow@PLT
	jmp	.L69
.L68:
	cmpq	%rdx, %rax
	ja	.L70
.L69:
	movq	-3808(%rbp), %rax
	addq	%rax, %r14
	movq	%r14, %rax
	testq	%r14, %r14
	je	.L71
	movq	%rax, %rdx
	andl	$7, %edx
	testq	%rdx, %rdx
	je	.L72
.L71:
	movq	%rax, %rsi
	leaq	.Lubsan_data346(%rip), %rdi
	call	__ubsan_handle_type_mismatch_v1@PLT
.L72:
	movq	%r14, %rax
	movq	%rax, %rdx
	shrq	$3, %rdx
	addq	$2147450880, %rdx
	movzbl	(%rdx), %edx
	testb	%dl, %dl
	je	.L73
	movq	%rax, %rdi
	call	__asan_report_load8@PLT
.L73:
	movq	(%r14), %rax
	.loc 2 167 32
	testq	%rax, %rax
	je	.L74
	.loc 2 167 28 discriminator 1
	movl	-3816(%rbp), %eax
	cltq
	.loc 2 167 31 discriminator 1
	leaq	0(,%rax,8), %r14
	movq	-3808(%rbp), %rdx
	leaq	(%rdx,%r14), %rax
	movq	%r14, %rcx
	notq	%rcx
	shrq	$63, %rcx
	testb	%cl, %cl
	je	.L75
	.loc 2 167 31 is_stmt 0
	cmpq	%rdx, %rax
	jnb	.L76
.L77:
	movq	-3808(%rbp), %rcx
	movq	%rax, %rdx
	movq	%rcx, %rsi
	leaq	.Lubsan_data347(%rip), %rdi
	call	__ubsan_handle_pointer_overflow@PLT
	jmp	.L76
.L75:
	.loc 2 167 31 discriminator 1
	cmpq	%rdx, %rax
	ja	.L77
.L76:
	movq	-3808(%rbp), %rax
	addq	%rax, %r14
	movq	%r14, %rax
	testq	%r14, %r14
	je	.L78
	movq	%rax, %rdx
	andl	$7, %edx
	testq	%rdx, %rdx
	je	.L79
.L78:
	.loc 2 167 31
	movq	%rax, %rsi
	leaq	.Lubsan_data348(%rip), %rdi
	call	__ubsan_handle_type_mismatch_v1@PLT
.L79:
	.loc 2 167 31 discriminator 1
	movq	%r14, %rax
	movq	%rax, %rdx
	shrq	$3, %rdx
	addq	$2147450880, %rdx
	movzbl	(%rdx), %edx
	testb	%dl, %dl
	je	.L80
	.loc 2 167 31
	movq	%rax, %rdi
	call	__asan_report_load8@PLT
.L80:
	.loc 2 167 31 discriminator 1
	movq	(%r14), %rax
	movq	%rax, %rdi
	call	_ZdaPv@PLT
.L74:
	.loc 2 166 9 is_stmt 1 discriminator 2
	movl	-3816(%rbp), %eax
	addl	$1, %eax
	movl	%eax, %r14d
	jno	.L81
	movl	-3816(%rbp), %eax
	cltq
	movl	$1, %edx
	movq	%rax, %rsi
	leaq	.Lubsan_data682(%rip), %rdi
	call	__ubsan_handle_add_overflow@PLT
.L81:
	movl	%r14d, -3816(%rbp)
	jmp	.L83
.L67:
.LBE13:
	.loc 2 169 23
	cmpq	$0, -3808(%rbp)
	je	.L66
	.loc 2 169 18 discriminator 1
	movq	-3808(%rbp), %rax
	movq	%rax, %rdi
	call	_ZdaPv@PLT
.L66:
.LBE12:
.LBE11:
	.loc 2 172 11
	leaq	_ZSt4cout(%rip), %rax
	movq	%rax, %rdx
	shrq	$3, %rdx
	addq	$2147450880, %rdx
	movzbl	(%rdx), %edx
	testb	%dl, %dl
	je	.L84
	movq	%rax, %rdi
	call	__asan_report_load8@PLT
.L84:
	movq	_ZSt4cout(%rip), %rax
	movq	%rax, %rdx
	movabsq	$-8638671864419, %rax
	xorq	%rdx, %rax
	movq	%rax, %rcx
	movabsq	$-7070675565921424023, %rax
	imulq	%rcx, %rax
	movq	%rax, %rcx
	salq	$47, %rcx
	xorq	%rdx, %rax
	xorq	%rax, %rcx
	movq	%rcx, %rdx
	movabsq	$-7070675565921424023, %rax
	imulq	%rdx, %rax
	movq	%rax, %rdx
	salq	$47, %rdx
	xorq	%rax, %rdx
	movabsq	$-7070675565921424023, %rax
	imulq	%rdx, %rax
	movq	%rax, %rdx
	andl	$127, %edx
	leaq	0(,%rdx,8), %rcx
	leaq	__ubsan_vptr_type_cache(%rip), %rdx
	movq	(%rcx,%rdx), %rdx
	cmpq	%rax, %rdx
	je	.L85
	movq	%rax, %rdx
	leaq	_ZSt4cout(%rip), %rsi
	leaq	.Lubsan_data349(%rip), %rdi
	call	__ubsan_handle_dynamic_type_cache_miss@PLT
.L85:
	movq	_ZSt4endlIcSt11char_traitsIcEERSt13basic_ostreamIT_T0_ES6_@GOTPCREL(%rip), %rax
	movq	%rax, %rsi
	leaq	_ZSt4cout(%rip), %rdi
.LEHB3:
	call	_ZNSolsEPFRSoS_E@PLT
	movq	%rax, %r14
	.loc 2 172 17
	movq	%r14, %rax
	testq	%r14, %r14
	je	.L86
	.loc 2 172 17 is_stmt 0 discriminator 1
	movq	%rax, %rdx
	andl	$7, %edx
	testq	%rdx, %rdx
	je	.L87
.L86:
	.loc 2 172 17
	movq	%rax, %rsi
	leaq	.Lubsan_data350(%rip), %rdi
	call	__ubsan_handle_type_mismatch_v1@PLT
.L87:
	.loc 2 172 17 discriminator 1
	leaq	.LC6(%rip), %rsi
	movq	%r14, %rdi
	call	_ZStlsISt11char_traitsIcEERSt13basic_ostreamIcT_ES5_PKc@PLT
	movq	%rax, %r14
	.loc 2 172 57 is_stmt 1 discriminator 1
	movq	%r14, %rax
	testq	%r14, %r14
	je	.L88
	.loc 2 172 57 is_stmt 0 discriminator 2
	movq	%rax, %rdx
	andl	$7, %edx
	testq	%rdx, %rdx
	je	.L89
.L88:
	.loc 2 172 57
	movq	%rax, %rsi
	leaq	.Lubsan_data351(%rip), %rdi
	call	__ubsan_handle_type_mismatch_v1@PLT
.L89:
	.loc 2 172 57 discriminator 2
	movq	%r14, %rax
	testq	%r14, %r14
	je	.L90
	movq	%rax, %rdx
	andl	$7, %edx
	testq	%rdx, %rdx
	je	.L91
.L90:
	.loc 2 172 57
	movq	%rax, %rsi
	leaq	.Lubsan_data352(%rip), %rdi
	call	__ubsan_handle_type_mismatch_v1@PLT
.L91:
	.loc 2 172 57 discriminator 2
	movq	%r14, %rax
	movq	%rax, %rdx
	shrq	$3, %rdx
	addq	$2147450880, %rdx
	movzbl	(%rdx), %edx
	testb	%dl, %dl
	je	.L92
	.loc 2 172 57
	movq	%rax, %rdi
	call	__asan_report_load8@PLT
.L92:
	.loc 2 172 57 discriminator 2
	movq	(%r14), %rax
	movq	%rax, %rdx
	movabsq	$-8638671864419, %rax
	xorq	%rdx, %rax
	movq	%rax, %rcx
	movabsq	$-7070675565921424023, %rax
	imulq	%rcx, %rax
	movq	%rax, %rcx
	salq	$47, %rcx
	xorq	%rdx, %rax
	xorq	%rax, %rcx
	movq	%rcx, %rdx
	movabsq	$-7070675565921424023, %rax
	imulq	%rdx, %rax
	movq	%rax, %rdx
	salq	$47, %rdx
	xorq	%rax, %rdx
	movabsq	$-7070675565921424023, %rax
	imulq	%rdx, %rax
	movq	%rax, %rdx
	andl	$127, %edx
	leaq	0(,%rdx,8), %rcx
	leaq	__ubsan_vptr_type_cache(%rip), %rdx
	movq	(%rcx,%rdx), %rdx
	cmpq	%rax, %rdx
	je	.L93
	.loc 2 172 57
	movq	%rax, %rdx
	movq	%r14, %rsi
	leaq	.Lubsan_data353(%rip), %rdi
	call	__ubsan_handle_dynamic_type_cache_miss@PLT
.L93:
	.loc 2 172 57 discriminator 2
	movq	_ZSt4endlIcSt11char_traitsIcEERSt13basic_ostreamIT_T0_ES6_@GOTPCREL(%rip), %rax
	movq	%rax, %rsi
	movq	%r14, %rdi
	call	_ZNSolsEPFRSoS_E@PLT
.LEHE3:
	.loc 2 173 22 is_stmt 1 discriminator 2
	leaq	-2784(%rbx), %rax
	shrq	$3, %rax
	addq	$2147450880, %rax
	movl	$0, (%rax)
	leaq	-3696(%rbx), %rax
	shrq	$3, %rax
	addq	$2147450880, %rax
	movb	$1, (%rax)
	leaq	-3696(%rbx), %rax
	movq	%rax, %rdi
	call	_ZNSaIcEC1Ev@PLT
	leaq	-3696(%rbx), %rdx
	leaq	-2784(%rbx), %rax
	leaq	.LC7(%rip), %rsi
	movq	%rax, %rdi
.LEHB4:
	call	_ZNSt7__cxx1112basic_stringIcSt11char_traitsIcESaIcEEC1IS3_EEPKcRKS3_
.LEHE4:
	leaq	-2784(%rbx), %r14
	movq	%r14, %rax
	testq	%r14, %r14
	je	.L94
	movq	%rax, %rdx
	andl	$7, %edx
	testq	%rdx, %rdx
	je	.L95
.L94:
	.loc 2 173 22 is_stmt 0
	movq	%rax, %rsi
	leaq	.Lubsan_data354(%rip), %rdi
	call	__ubsan_handle_type_mismatch_v1@PLT
.L95:
	.loc 2 173 22 discriminator 2
	leaq	-2880(%rbx), %rcx
	leaq	-2992(%rbx), %rdx
	leaq	-3008(%rbx), %rax
	movq	%rax, %rsi
	movq	%r14, %rdi
.LEHB5:
	call	_Z9loadLevelRKNSt7__cxx1112basic_stringIcSt11char_traitsIcESaIcEEERiS7_R6Player@PLT
.LEHE5:
	movq	%rax, -3808(%rbp)
	leaq	-2784(%rbx), %rax
	movq	%rax, %rdi
	call	_ZNSt7__cxx1112basic_stringIcSt11char_traitsIcESaIcEED1Ev@PLT
	leaq	-2784(%rbx), %rax
	shrq	$3, %rax
	addq	$2147450880, %rax
	movl	$-117901064, (%rax)
	leaq	-3696(%rbx), %rax
	movq	%rax, %rdi
	call	_ZNSaIcED1Ev@PLT
	leaq	-3696(%rbx), %rax
	shrq	$3, %rax
	addq	$2147450880, %rax
	movb	$-8, (%rax)
	.loc 2 174 11 is_stmt 1 discriminator 2
	leaq	_ZSt4cout(%rip), %rax
	movq	%rax, %rdx
	shrq	$3, %rdx
	addq	$2147450880, %rdx
	movzbl	(%rdx), %edx
	testb	%dl, %dl
	je	.L96
	.loc 2 174 11 is_stmt 0
	movq	%rax, %rdi
	call	__asan_report_load8@PLT
.L96:
	.loc 2 174 11 discriminator 4
	movq	_ZSt4cout(%rip), %rax
	movq	%rax, %rdx
	movabsq	$-8638671864419, %rax
	xorq	%rdx, %rax
	movq	%rax, %rcx
	movabsq	$-7070675565921424023, %rax
	imulq	%rcx, %rax
	movq	%rax, %rcx
	salq	$47, %rcx
	xorq	%rdx, %rax
	xorq	%rax, %rcx
	movq	%rcx, %rdx
	movabsq	$-7070675565921424023, %rax
	imulq	%rdx, %rax
	movq	%rax, %rdx
	salq	$47, %rdx
	xorq	%rax, %rdx
	movabsq	$-7070675565921424023, %rax
	imulq	%rdx, %rax
	movq	%rax, %rdx
	andl	$127, %edx
	leaq	0(,%rdx,8), %rcx
	leaq	__ubsan_vptr_type_cache(%rip), %rdx
	movq	(%rcx,%rdx), %rdx
	cmpq	%rax, %rdx
	je	.L97
	.loc 2 174 11
	movq	%rax, %rdx
	leaq	_ZSt4cout(%rip), %rsi
	leaq	.Lubsan_data355(%rip), %rdi
	call	__ubsan_handle_dynamic_type_cache_miss@PLT
.L97:
	.loc 2 174 11 discriminator 4
	movq	_ZSt4endlIcSt11char_traitsIcEERSt13basic_ostreamIT_T0_ES6_@GOTPCREL(%rip), %rax
	movq	%rax, %rsi
	leaq	_ZSt4cout(%rip), %rdi
.LEHB6:
	call	_ZNSolsEPFRSoS_E@PLT
	movq	%rax, %r14
	.loc 2 174 17 is_stmt 1 discriminator 4
	movq	%r14, %rax
	testq	%r14, %r14
	je	.L98
	.loc 2 174 17 is_stmt 0 discriminator 1
	movq	%rax, %rdx
	andl	$7, %edx
	testq	%rdx, %rdx
	je	.L99
.L98:
	.loc 2 174 17
	movq	%rax, %rsi
	leaq	.Lubsan_data356(%rip), %rdi
	call	__ubsan_handle_type_mismatch_v1@PLT
.L99:
	.loc 2 174 17 discriminator 1
	leaq	.LC8(%rip), %rsi
	movq	%r14, %rdi
	call	_ZStlsISt11char_traitsIcEERSt13basic_ostreamIcT_ES5_PKc@PLT
	movq	%rax, %r14
	.loc 2 174 58 is_stmt 1 discriminator 1
	movq	%r14, %rax
	testq	%r14, %r14
	je	.L100
	.loc 2 174 58 is_stmt 0 discriminator 2
	movq	%rax, %rdx
	andl	$7, %edx
	testq	%rdx, %rdx
	je	.L101
.L100:
	.loc 2 174 58
	movq	%rax, %rsi
	leaq	.Lubsan_data357(%rip), %rdi
	call	__ubsan_handle_type_mismatch_v1@PLT
.L101:
	.loc 2 174 58 discriminator 2
	movq	%r14, %rax
	testq	%r14, %r14
	je	.L102
	movq	%rax, %rdx
	andl	$7, %edx
	testq	%rdx, %rdx
	je	.L103
.L102:
	.loc 2 174 58
	movq	%rax, %rsi
	leaq	.Lubsan_data358(%rip), %rdi
	call	__ubsan_handle_type_mismatch_v1@PLT
.L103:
	.loc 2 174 58 discriminator 2
	movq	%r14, %rax
	movq	%rax, %rdx
	shrq	$3, %rdx
	addq	$2147450880, %rdx
	movzbl	(%rdx), %edx
	testb	%dl, %dl
	je	.L104
	.loc 2 174 58
	movq	%rax, %rdi
	call	__asan_report_load8@PLT
.L104:
	.loc 2 174 58 discriminator 2
	movq	(%r14), %rax
	movq	%rax, %rdx
	movabsq	$-8638671864419, %rax
	xorq	%rdx, %rax
	movq	%rax, %rcx
	movabsq	$-7070675565921424023, %rax
	imulq	%rcx, %rax
	movq	%rax, %rcx
	salq	$47, %rcx
	xorq	%rdx, %rax
	xorq	%rax, %rcx
	movq	%rcx, %rdx
	movabsq	$-7070675565921424023, %rax
	imulq	%rdx, %rax
	movq	%rax, %rdx
	salq	$47, %rdx
	xorq	%rax, %rdx
	movabsq	$-7070675565921424023, %rax
	imulq	%rdx, %rax
	movq	%rax, %rdx
	andl	$127, %edx
	leaq	0(,%rdx,8), %rcx
	leaq	__ubsan_vptr_type_cache(%rip), %rdx
	movq	(%rcx,%rdx), %rdx
	cmpq	%rax, %rdx
	je	.L105
	.loc 2 174 58
	movq	%rax, %rdx
	movq	%r14, %rsi
	leaq	.Lubsan_data359(%rip), %rdi
	call	__ubsan_handle_dynamic_type_cache_miss@PLT
.L105:
	.loc 2 174 58 discriminator 2
	movq	_ZSt4endlIcSt11char_traitsIcEERSt13basic_ostreamIT_T0_ES6_@GOTPCREL(%rip), %rax
	movq	%rax, %rsi
	movq	%r14, %rdi
	call	_ZNSolsEPFRSoS_E@PLT
.LEHE6:
	.loc 2 175 22 is_stmt 1 discriminator 2
	leaq	-2720(%rbx), %rax
	shrq	$3, %rax
	addq	$2147450880, %rax
	movl	$0, (%rax)
	leaq	-3680(%rbx), %rax
	shrq	$3, %rax
	addq	$2147450880, %rax
	movb	$1, (%rax)
	leaq	-3680(%rbx), %rax
	movq	%rax, %rdi
	call	_ZNSaIcEC1Ev@PLT
	leaq	-3680(%rbx), %rdx
	leaq	-2720(%rbx), %rax
	leaq	.LC9(%rip), %rsi
	movq	%rax, %rdi
.LEHB7:
	call	_ZNSt7__cxx1112basic_stringIcSt11char_traitsIcESaIcEEC1IS3_EEPKcRKS3_
.LEHE7:
	leaq	-2720(%rbx), %r14
	movq	%r14, %rax
	testq	%r14, %r14
	je	.L106
	movq	%rax, %rdx
	andl	$7, %edx
	testq	%rdx, %rdx
	je	.L107
.L106:
	.loc 2 175 22 is_stmt 0
	movq	%rax, %rsi
	leaq	.Lubsan_data360(%rip), %rdi
	call	__ubsan_handle_type_mismatch_v1@PLT
.L107:
	.loc 2 175 22 discriminator 2
	leaq	-2880(%rbx), %rcx
	leaq	-2992(%rbx), %rdx
	leaq	-3008(%rbx), %rax
	movq	%rax, %rsi
	movq	%r14, %rdi
.LEHB8:
	call	_Z9loadLevelRKNSt7__cxx1112basic_stringIcSt11char_traitsIcESaIcEEERiS7_R6Player@PLT
.LEHE8:
	movq	%rax, -3808(%rbp)
	leaq	-2720(%rbx), %rax
	movq	%rax, %rdi
	call	_ZNSt7__cxx1112basic_stringIcSt11char_traitsIcESaIcEED1Ev@PLT
	leaq	-2720(%rbx), %rax
	shrq	$3, %rax
	addq	$2147450880, %rax
	movl	$-117901064, (%rax)
	leaq	-3680(%rbx), %rax
	movq	%rax, %rdi
	call	_ZNSaIcED1Ev@PLT
	leaq	-3680(%rbx), %rax
	shrq	$3, %rax
	addq	$2147450880, %rax
	movb	$-8, (%rax)
	.loc 2 176 11 is_stmt 1 discriminator 2
	leaq	_ZSt4cout(%rip), %rax
	movq	%rax, %rdx
	shrq	$3, %rdx
	addq	$2147450880, %rdx
	movzbl	(%rdx), %edx
	testb	%dl, %dl
	je	.L108
	.loc 2 176 11 is_stmt 0
	movq	%rax, %rdi
	call	__asan_report_load8@PLT
.L108:
	.loc 2 176 11 discriminator 4
	movq	_ZSt4cout(%rip), %rax
	movq	%rax, %rdx
	movabsq	$-8638671864419, %rax
	xorq	%rdx, %rax
	movq	%rax, %rcx
	movabsq	$-7070675565921424023, %rax
	imulq	%rcx, %rax
	movq	%rax, %rcx
	salq	$47, %rcx
	xorq	%rdx, %rax
	xorq	%rax, %rcx
	movq	%rcx, %rdx
	movabsq	$-7070675565921424023, %rax
	imulq	%rdx, %rax
	movq	%rax, %rdx
	salq	$47, %rdx
	xorq	%rax, %rdx
	movabsq	$-7070675565921424023, %rax
	imulq	%rdx, %rax
	movq	%rax, %rdx
	andl	$127, %edx
	leaq	0(,%rdx,8), %rcx
	leaq	__ubsan_vptr_type_cache(%rip), %rdx
	movq	(%rcx,%rdx), %rdx
	cmpq	%rax, %rdx
	je	.L109
	.loc 2 176 11
	movq	%rax, %rdx
	leaq	_ZSt4cout(%rip), %rsi
	leaq	.Lubsan_data361(%rip), %rdi
	call	__ubsan_handle_dynamic_type_cache_miss@PLT
.L109:
	.loc 2 176 11 discriminator 4
	movq	_ZSt4endlIcSt11char_traitsIcEERSt13basic_ostreamIT_T0_ES6_@GOTPCREL(%rip), %rax
	movq	%rax, %rsi
	leaq	_ZSt4cout(%rip), %rdi
.LEHB9:
	call	_ZNSolsEPFRSoS_E@PLT
	movq	%rax, %r14
	.loc 2 176 17 is_stmt 1 discriminator 4
	movq	%r14, %rax
	testq	%r14, %r14
	je	.L110
	.loc 2 176 17 is_stmt 0 discriminator 1
	movq	%rax, %rdx
	andl	$7, %edx
	testq	%rdx, %rdx
	je	.L111
.L110:
	.loc 2 176 17
	movq	%rax, %rsi
	leaq	.Lubsan_data362(%rip), %rdi
	call	__ubsan_handle_type_mismatch_v1@PLT
.L111:
	.loc 2 176 17 discriminator 1
	leaq	.LC10(%rip), %rsi
	movq	%r14, %rdi
	call	_ZStlsISt11char_traitsIcEERSt13basic_ostreamIcT_ES5_PKc@PLT
	movq	%rax, %r14
	.loc 2 176 51 is_stmt 1 discriminator 1
	movq	%r14, %rax
	testq	%r14, %r14
	je	.L112
	.loc 2 176 51 is_stmt 0 discriminator 2
	movq	%rax, %rdx
	andl	$7, %edx
	testq	%rdx, %rdx
	je	.L113
.L112:
	.loc 2 176 51
	movq	%rax, %rsi
	leaq	.Lubsan_data363(%rip), %rdi
	call	__ubsan_handle_type_mismatch_v1@PLT
.L113:
	.loc 2 176 51 discriminator 2
	movq	%r14, %rax
	testq	%r14, %r14
	je	.L114
	movq	%rax, %rdx
	andl	$7, %edx
	testq	%rdx, %rdx
	je	.L115
.L114:
	.loc 2 176 51
	movq	%rax, %rsi
	leaq	.Lubsan_data364(%rip), %rdi
	call	__ubsan_handle_type_mismatch_v1@PLT
.L115:
	.loc 2 176 51 discriminator 2
	movq	%r14, %rax
	movq	%rax, %rdx
	shrq	$3, %rdx
	addq	$2147450880, %rdx
	movzbl	(%rdx), %edx
	testb	%dl, %dl
	je	.L116
	.loc 2 176 51
	movq	%rax, %rdi
	call	__asan_report_load8@PLT
.L116:
	.loc 2 176 51 discriminator 2
	movq	(%r14), %rax
	movq	%rax, %rdx
	movabsq	$-8638671864419, %rax
	xorq	%rdx, %rax
	movq	%rax, %rcx
	movabsq	$-7070675565921424023, %rax
	imulq	%rcx, %rax
	movq	%rax, %rcx
	salq	$47, %rcx
	xorq	%rdx, %rax
	xorq	%rax, %rcx
	movq	%rcx, %rdx
	movabsq	$-7070675565921424023, %rax
	imulq	%rdx, %rax
	movq	%rax, %rdx
	salq	$47, %rdx
	xorq	%rax, %rdx
	movabsq	$-7070675565921424023, %rax
	imulq	%rdx, %rax
	movq	%rax, %rdx
	andl	$127, %edx
	leaq	0(,%rdx,8), %rcx
	leaq	__ubsan_vptr_type_cache(%rip), %rdx
	movq	(%rcx,%rdx), %rdx
	cmpq	%rax, %rdx
	je	.L117
	.loc 2 176 51
	movq	%rax, %rdx
	movq	%r14, %rsi
	leaq	.Lubsan_data365(%rip), %rdi
	call	__ubsan_handle_dynamic_type_cache_miss@PLT
.L117:
	.loc 2 176 51 discriminator 2
	movq	_ZSt4endlIcSt11char_traitsIcEERSt13basic_ostreamIT_T0_ES6_@GOTPCREL(%rip), %rax
	movq	%rax, %rsi
	movq	%r14, %rdi
	call	_ZNSolsEPFRSoS_E@PLT
.LEHE9:
	.loc 2 177 22 is_stmt 1 discriminator 2
	leaq	-2656(%rbx), %rax
	shrq	$3, %rax
	addq	$2147450880, %rax
	movl	$0, (%rax)
	leaq	-3664(%rbx), %rax
	shrq	$3, %rax
	addq	$2147450880, %rax
	movb	$1, (%rax)
	leaq	-3664(%rbx), %rax
	movq	%rax, %rdi
	call	_ZNSaIcEC1Ev@PLT
	leaq	-3664(%rbx), %rdx
	leaq	-2656(%rbx), %rax
	leaq	.LC11(%rip), %rsi
	movq	%rax, %rdi
.LEHB10:
	call	_ZNSt7__cxx1112basic_stringIcSt11char_traitsIcESaIcEEC1IS3_EEPKcRKS3_
.LEHE10:
	leaq	-2656(%rbx), %r14
	movq	%r14, %rax
	testq	%r14, %r14
	je	.L118
	movq	%rax, %rdx
	andl	$7, %edx
	testq	%rdx, %rdx
	je	.L119
.L118:
	.loc 2 177 22 is_stmt 0
	movq	%rax, %rsi
	leaq	.Lubsan_data366(%rip), %rdi
	call	__ubsan_handle_type_mismatch_v1@PLT
.L119:
	.loc 2 177 22 discriminator 2
	leaq	-2880(%rbx), %rcx
	leaq	-2992(%rbx), %rdx
	leaq	-3008(%rbx), %rax
	movq	%rax, %rsi
	movq	%r14, %rdi
.LEHB11:
	call	_Z9loadLevelRKNSt7__cxx1112basic_stringIcSt11char_traitsIcESaIcEEERiS7_R6Player@PLT
.LEHE11:
	movq	%rax, -3808(%rbp)
	leaq	-2656(%rbx), %rax
	movq	%rax, %rdi
	call	_ZNSt7__cxx1112basic_stringIcSt11char_traitsIcESaIcEED1Ev@PLT
	leaq	-2656(%rbx), %rax
	shrq	$3, %rax
	addq	$2147450880, %rax
	movl	$-117901064, (%rax)
	leaq	-3664(%rbx), %rax
	movq	%rax, %rdi
	call	_ZNSaIcED1Ev@PLT
	leaq	-3664(%rbx), %rax
	shrq	$3, %rax
	addq	$2147450880, %rax
	movb	$-8, (%rax)
	.loc 2 178 11 is_stmt 1 discriminator 2
	leaq	_ZSt4cout(%rip), %rax
	movq	%rax, %rdx
	shrq	$3, %rdx
	addq	$2147450880, %rdx
	movzbl	(%rdx), %edx
	testb	%dl, %dl
	je	.L120
	.loc 2 178 11 is_stmt 0
	movq	%rax, %rdi
	call	__asan_report_load8@PLT
.L120:
	.loc 2 178 11 discriminator 4
	movq	_ZSt4cout(%rip), %rax
	movq	%rax, %rdx
	movabsq	$-8638671864419, %rax
	xorq	%rdx, %rax
	movq	%rax, %rcx
	movabsq	$-7070675565921424023, %rax
	imulq	%rcx, %rax
	movq	%rax, %rcx
	salq	$47, %rcx
	xorq	%rdx, %rax
	xorq	%rax, %rcx
	movq	%rcx, %rdx
	movabsq	$-7070675565921424023, %rax
	imulq	%rdx, %rax
	movq	%rax, %rdx
	salq	$47, %rdx
	xorq	%rax, %rdx
	movabsq	$-7070675565921424023, %rax
	imulq	%rdx, %rax
	movq	%rax, %rdx
	andl	$127, %edx
	leaq	0(,%rdx,8), %rcx
	leaq	__ubsan_vptr_type_cache(%rip), %rdx
	movq	(%rcx,%rdx), %rdx
	cmpq	%rax, %rdx
	je	.L121
	.loc 2 178 11
	movq	%rax, %rdx
	leaq	_ZSt4cout(%rip), %rsi
	leaq	.Lubsan_data367(%rip), %rdi
	call	__ubsan_handle_dynamic_type_cache_miss@PLT
.L121:
	.loc 2 178 11 discriminator 4
	movq	_ZSt4endlIcSt11char_traitsIcEERSt13basic_ostreamIT_T0_ES6_@GOTPCREL(%rip), %rax
	movq	%rax, %rsi
	leaq	_ZSt4cout(%rip), %rdi
.LEHB12:
	call	_ZNSolsEPFRSoS_E@PLT
	movq	%rax, %r14
	.loc 2 178 17 is_stmt 1 discriminator 4
	movq	%r14, %rax
	testq	%r14, %r14
	je	.L122
	.loc 2 178 17 is_stmt 0 discriminator 1
	movq	%rax, %rdx
	andl	$7, %edx
	testq	%rdx, %rdx
	je	.L123
.L122:
	.loc 2 178 17
	movq	%rax, %rsi
	leaq	.Lubsan_data368(%rip), %rdi
	call	__ubsan_handle_type_mismatch_v1@PLT
.L123:
	.loc 2 178 17 discriminator 1
	leaq	.LC12(%rip), %rsi
	movq	%r14, %rdi
	call	_ZStlsISt11char_traitsIcEERSt13basic_ostreamIcT_ES5_PKc@PLT
	movq	%rax, %r14
	.loc 2 178 58 is_stmt 1 discriminator 1
	movq	%r14, %rax
	testq	%r14, %r14
	je	.L124
	.loc 2 178 58 is_stmt 0 discriminator 2
	movq	%rax, %rdx
	andl	$7, %edx
	testq	%rdx, %rdx
	je	.L125
.L124:
	.loc 2 178 58
	movq	%rax, %rsi
	leaq	.Lubsan_data369(%rip), %rdi
	call	__ubsan_handle_type_mismatch_v1@PLT
.L125:
	.loc 2 178 58 discriminator 2
	movq	%r14, %rax
	testq	%r14, %r14
	je	.L126
	movq	%rax, %rdx
	andl	$7, %edx
	testq	%rdx, %rdx
	je	.L127
.L126:
	.loc 2 178 58
	movq	%rax, %rsi
	leaq	.Lubsan_data370(%rip), %rdi
	call	__ubsan_handle_type_mismatch_v1@PLT
.L127:
	.loc 2 178 58 discriminator 2
	movq	%r14, %rax
	movq	%rax, %rdx
	shrq	$3, %rdx
	addq	$2147450880, %rdx
	movzbl	(%rdx), %edx
	testb	%dl, %dl
	je	.L128
	.loc 2 178 58
	movq	%rax, %rdi
	call	__asan_report_load8@PLT
.L128:
	.loc 2 178 58 discriminator 2
	movq	(%r14), %rax
	movq	%rax, %rdx
	movabsq	$-8638671864419, %rax
	xorq	%rdx, %rax
	movq	%rax, %rcx
	movabsq	$-7070675565921424023, %rax
	imulq	%rcx, %rax
	movq	%rax, %rcx
	salq	$47, %rcx
	xorq	%rdx, %rax
	xorq	%rax, %rcx
	movq	%rcx, %rdx
	movabsq	$-7070675565921424023, %rax
	imulq	%rdx, %rax
	movq	%rax, %rdx
	salq	$47, %rdx
	xorq	%rax, %rdx
	movabsq	$-7070675565921424023, %rax
	imulq	%rdx, %rax
	movq	%rax, %rdx
	andl	$127, %edx
	leaq	0(,%rdx,8), %rcx
	leaq	__ubsan_vptr_type_cache(%rip), %rdx
	movq	(%rcx,%rdx), %rdx
	cmpq	%rax, %rdx
	je	.L129
	.loc 2 178 58
	movq	%rax, %rdx
	movq	%r14, %rsi
	leaq	.Lubsan_data371(%rip), %rdi
	call	__ubsan_handle_dynamic_type_cache_miss@PLT
.L129:
	.loc 2 178 58 discriminator 2
	movq	_ZSt4endlIcSt11char_traitsIcEERSt13basic_ostreamIT_T0_ES6_@GOTPCREL(%rip), %rax
	movq	%rax, %rsi
	movq	%r14, %rdi
	call	_ZNSolsEPFRSoS_E@PLT
.LEHE12:
	.loc 2 179 22 is_stmt 1 discriminator 2
	leaq	-2592(%rbx), %rax
	shrq	$3, %rax
	addq	$2147450880, %rax
	movl	$0, (%rax)
	leaq	-3648(%rbx), %rax
	shrq	$3, %rax
	addq	$2147450880, %rax
	movb	$1, (%rax)
	leaq	-3648(%rbx), %rax
	movq	%rax, %rdi
	call	_ZNSaIcEC1Ev@PLT
	leaq	-3648(%rbx), %rdx
	leaq	-2592(%rbx), %rax
	leaq	.LC13(%rip), %rsi
	movq	%rax, %rdi
.LEHB13:
	call	_ZNSt7__cxx1112basic_stringIcSt11char_traitsIcESaIcEEC1IS3_EEPKcRKS3_
.LEHE13:
	leaq	-2592(%rbx), %r14
	movq	%r14, %rax
	testq	%r14, %r14
	je	.L130
	movq	%rax, %rdx
	andl	$7, %edx
	testq	%rdx, %rdx
	je	.L131
.L130:
	.loc 2 179 22 is_stmt 0
	movq	%rax, %rsi
	leaq	.Lubsan_data372(%rip), %rdi
	call	__ubsan_handle_type_mismatch_v1@PLT
.L131:
	.loc 2 179 22 discriminator 2
	leaq	-2880(%rbx), %rcx
	leaq	-2992(%rbx), %rdx
	leaq	-3008(%rbx), %rax
	movq	%rax, %rsi
	movq	%r14, %rdi
.LEHB14:
	call	_Z9loadLevelRKNSt7__cxx1112basic_stringIcSt11char_traitsIcESaIcEEERiS7_R6Player@PLT
.LEHE14:
	movq	%rax, -3808(%rbp)
	leaq	-2592(%rbx), %rax
	movq	%rax, %rdi
	call	_ZNSt7__cxx1112basic_stringIcSt11char_traitsIcESaIcEED1Ev@PLT
	leaq	-2592(%rbx), %rax
	shrq	$3, %rax
	addq	$2147450880, %rax
	movl	$-117901064, (%rax)
	leaq	-3648(%rbx), %rax
	movq	%rax, %rdi
	call	_ZNSaIcED1Ev@PLT
	leaq	-3648(%rbx), %rax
	shrq	$3, %rax
	addq	$2147450880, %rax
	movb	$-8, (%rax)
	.loc 2 180 11 is_stmt 1 discriminator 2
	leaq	_ZSt4cout(%rip), %rax
	movq	%rax, %rdx
	shrq	$3, %rdx
	addq	$2147450880, %rdx
	movzbl	(%rdx), %edx
	testb	%dl, %dl
	je	.L132
	.loc 2 180 11 is_stmt 0
	movq	%rax, %rdi
	call	__asan_report_load8@PLT
.L132:
	.loc 2 180 11 discriminator 4
	movq	_ZSt4cout(%rip), %rax
	movq	%rax, %rdx
	movabsq	$-8638671864419, %rax
	xorq	%rdx, %rax
	movq	%rax, %rcx
	movabsq	$-7070675565921424023, %rax
	imulq	%rcx, %rax
	movq	%rax, %rcx
	salq	$47, %rcx
	xorq	%rdx, %rax
	xorq	%rax, %rcx
	movq	%rcx, %rdx
	movabsq	$-7070675565921424023, %rax
	imulq	%rdx, %rax
	movq	%rax, %rdx
	salq	$47, %rdx
	xorq	%rax, %rdx
	movabsq	$-7070675565921424023, %rax
	imulq	%rdx, %rax
	movq	%rax, %rdx
	andl	$127, %edx
	leaq	0(,%rdx,8), %rcx
	leaq	__ubsan_vptr_type_cache(%rip), %rdx
	movq	(%rcx,%rdx), %rdx
	cmpq	%rax, %rdx
	je	.L133
	.loc 2 180 11
	movq	%rax, %rdx
	leaq	_ZSt4cout(%rip), %rsi
	leaq	.Lubsan_data373(%rip), %rdi
	call	__ubsan_handle_dynamic_type_cache_miss@PLT
.L133:
	.loc 2 180 11 discriminator 4
	movq	_ZSt4endlIcSt11char_traitsIcEERSt13basic_ostreamIT_T0_ES6_@GOTPCREL(%rip), %rax
	movq	%rax, %rsi
	leaq	_ZSt4cout(%rip), %rdi
.LEHB15:
	call	_ZNSolsEPFRSoS_E@PLT
	movq	%rax, %r14
	.loc 2 180 17 is_stmt 1 discriminator 4
	movq	%r14, %rax
	testq	%r14, %r14
	je	.L134
	.loc 2 180 17 is_stmt 0 discriminator 1
	movq	%rax, %rdx
	andl	$7, %edx
	testq	%rdx, %rdx
	je	.L135
.L134:
	.loc 2 180 17
	movq	%rax, %rsi
	leaq	.Lubsan_data374(%rip), %rdi
	call	__ubsan_handle_type_mismatch_v1@PLT
.L135:
	.loc 2 180 17 discriminator 1
	leaq	.LC14(%rip), %rsi
	movq	%r14, %rdi
	call	_ZStlsISt11char_traitsIcEERSt13basic_ostreamIcT_ES5_PKc@PLT
	movq	%rax, %r14
	.loc 2 180 51 is_stmt 1 discriminator 1
	movq	%r14, %rax
	testq	%r14, %r14
	je	.L136
	.loc 2 180 51 is_stmt 0 discriminator 2
	movq	%rax, %rdx
	andl	$7, %edx
	testq	%rdx, %rdx
	je	.L137
.L136:
	.loc 2 180 51
	movq	%rax, %rsi
	leaq	.Lubsan_data375(%rip), %rdi
	call	__ubsan_handle_type_mismatch_v1@PLT
.L137:
	.loc 2 180 51 discriminator 2
	movq	%r14, %rax
	testq	%r14, %r14
	je	.L138
	movq	%rax, %rdx
	andl	$7, %edx
	testq	%rdx, %rdx
	je	.L139
.L138:
	.loc 2 180 51
	movq	%rax, %rsi
	leaq	.Lubsan_data376(%rip), %rdi
	call	__ubsan_handle_type_mismatch_v1@PLT
.L139:
	.loc 2 180 51 discriminator 2
	movq	%r14, %rax
	movq	%rax, %rdx
	shrq	$3, %rdx
	addq	$2147450880, %rdx
	movzbl	(%rdx), %edx
	testb	%dl, %dl
	je	.L140
	.loc 2 180 51
	movq	%rax, %rdi
	call	__asan_report_load8@PLT
.L140:
	.loc 2 180 51 discriminator 2
	movq	(%r14), %rax
	movq	%rax, %rdx
	movabsq	$-8638671864419, %rax
	xorq	%rdx, %rax
	movq	%rax, %rcx
	movabsq	$-7070675565921424023, %rax
	imulq	%rcx, %rax
	movq	%rax, %rcx
	salq	$47, %rcx
	xorq	%rdx, %rax
	xorq	%rax, %rcx
	movq	%rcx, %rdx
	movabsq	$-7070675565921424023, %rax
	imulq	%rdx, %rax
	movq	%rax, %rdx
	salq	$47, %rdx
	xorq	%rax, %rdx
	movabsq	$-7070675565921424023, %rax
	imulq	%rdx, %rax
	movq	%rax, %rdx
	andl	$127, %edx
	leaq	0(,%rdx,8), %rcx
	leaq	__ubsan_vptr_type_cache(%rip), %rdx
	movq	(%rcx,%rdx), %rdx
	cmpq	%rax, %rdx
	je	.L141
	.loc 2 180 51
	movq	%rax, %rdx
	movq	%r14, %rsi
	leaq	.Lubsan_data377(%rip), %rdi
	call	__ubsan_handle_dynamic_type_cache_miss@PLT
.L141:
	.loc 2 180 51 discriminator 2
	movq	_ZSt4endlIcSt11char_traitsIcEERSt13basic_ostreamIT_T0_ES6_@GOTPCREL(%rip), %rax
	movq	%rax, %rsi
	movq	%r14, %rdi
	call	_ZNSolsEPFRSoS_E@PLT
.LEHE15:
	.loc 2 181 22 is_stmt 1 discriminator 2
	leaq	-2528(%rbx), %rax
	shrq	$3, %rax
	addq	$2147450880, %rax
	movl	$0, (%rax)
	leaq	-3632(%rbx), %rax
	shrq	$3, %rax
	addq	$2147450880, %rax
	movb	$1, (%rax)
	leaq	-3632(%rbx), %rax
	movq	%rax, %rdi
	call	_ZNSaIcEC1Ev@PLT
	leaq	-3632(%rbx), %rdx
	leaq	-2528(%rbx), %rax
	leaq	.LC15(%rip), %rsi
	movq	%rax, %rdi
.LEHB16:
	call	_ZNSt7__cxx1112basic_stringIcSt11char_traitsIcESaIcEEC1IS3_EEPKcRKS3_
.LEHE16:
	leaq	-2528(%rbx), %r14
	movq	%r14, %rax
	testq	%r14, %r14
	je	.L142
	movq	%rax, %rdx
	andl	$7, %edx
	testq	%rdx, %rdx
	je	.L143
.L142:
	.loc 2 181 22 is_stmt 0
	movq	%rax, %rsi
	leaq	.Lubsan_data378(%rip), %rdi
	call	__ubsan_handle_type_mismatch_v1@PLT
.L143:
	.loc 2 181 22 discriminator 2
	leaq	-2880(%rbx), %rcx
	leaq	-2992(%rbx), %rdx
	leaq	-3008(%rbx), %rax
	movq	%rax, %rsi
	movq	%r14, %rdi
.LEHB17:
	call	_Z9loadLevelRKNSt7__cxx1112basic_stringIcSt11char_traitsIcESaIcEEERiS7_R6Player@PLT
.LEHE17:
	movq	%rax, -3808(%rbp)
	leaq	-2528(%rbx), %rax
	movq	%rax, %rdi
	call	_ZNSt7__cxx1112basic_stringIcSt11char_traitsIcESaIcEED1Ev@PLT
	leaq	-2528(%rbx), %rax
	shrq	$3, %rax
	addq	$2147450880, %rax
	movl	$-117901064, (%rax)
	leaq	-3632(%rbx), %rax
	movq	%rax, %rdi
	call	_ZNSaIcED1Ev@PLT
	leaq	-3632(%rbx), %rax
	shrq	$3, %rax
	addq	$2147450880, %rax
	movb	$-8, (%rax)
	.loc 2 183 11 is_stmt 1 discriminator 2
	leaq	_ZSt4cout(%rip), %rax
	movq	%rax, %rdx
	shrq	$3, %rdx
	addq	$2147450880, %rdx
	movzbl	(%rdx), %edx
	testb	%dl, %dl
	je	.L144
	.loc 2 183 11 is_stmt 0
	movq	%rax, %rdi
	call	__asan_report_load8@PLT
.L144:
	.loc 2 183 11 discriminator 4
	movq	_ZSt4cout(%rip), %rax
	movq	%rax, %rdx
	movabsq	$-8638671864419, %rax
	xorq	%rdx, %rax
	movq	%rax, %rcx
	movabsq	$-7070675565921424023, %rax
	imulq	%rcx, %rax
	movq	%rax, %rcx
	salq	$47, %rcx
	xorq	%rdx, %rax
	xorq	%rax, %rcx
	movq	%rcx, %rdx
	movabsq	$-7070675565921424023, %rax
	imulq	%rdx, %rax
	movq	%rax, %rdx
	salq	$47, %rdx
	xorq	%rax, %rdx
	movabsq	$-7070675565921424023, %rax
	imulq	%rdx, %rax
	movq	%rax, %rdx
	andl	$127, %edx
	leaq	0(,%rdx,8), %rcx
	leaq	__ubsan_vptr_type_cache(%rip), %rdx
	movq	(%rcx,%rdx), %rdx
	cmpq	%rax, %rdx
	je	.L145
	.loc 2 183 11
	movq	%rax, %rdx
	leaq	_ZSt4cout(%rip), %rsi
	leaq	.Lubsan_data379(%rip), %rdi
	call	__ubsan_handle_dynamic_type_cache_miss@PLT
.L145:
	.loc 2 183 11 discriminator 4
	movq	_ZSt4endlIcSt11char_traitsIcEERSt13basic_ostreamIT_T0_ES6_@GOTPCREL(%rip), %rax
	movq	%rax, %rsi
	leaq	_ZSt4cout(%rip), %rdi
.LEHB18:
	call	_ZNSolsEPFRSoS_E@PLT
	movq	%rax, %r14
	.loc 2 183 17 is_stmt 1 discriminator 4
	movq	%r14, %rax
	testq	%r14, %r14
	je	.L146
	.loc 2 183 17 is_stmt 0 discriminator 1
	movq	%rax, %rdx
	andl	$7, %edx
	testq	%rdx, %rdx
	je	.L147
.L146:
	.loc 2 183 17
	movq	%rax, %rsi
	leaq	.Lubsan_data380(%rip), %rdi
	call	__ubsan_handle_type_mismatch_v1@PLT
.L147:
	.loc 2 183 17 discriminator 1
	leaq	.LC16(%rip), %rsi
	movq	%r14, %rdi
	call	_ZStlsISt11char_traitsIcEERSt13basic_ostreamIcT_ES5_PKc@PLT
	movq	%rax, %r14
	.loc 2 183 66 is_stmt 1 discriminator 1
	movq	%r14, %rax
	testq	%r14, %r14
	je	.L148
	.loc 2 183 66 is_stmt 0 discriminator 2
	movq	%rax, %rdx
	andl	$7, %edx
	testq	%rdx, %rdx
	je	.L149
.L148:
	.loc 2 183 66
	movq	%rax, %rsi
	leaq	.Lubsan_data381(%rip), %rdi
	call	__ubsan_handle_type_mismatch_v1@PLT
.L149:
	.loc 2 183 66 discriminator 2
	movq	%r14, %rax
	testq	%r14, %r14
	je	.L150
	movq	%rax, %rdx
	andl	$7, %edx
	testq	%rdx, %rdx
	je	.L151
.L150:
	.loc 2 183 66
	movq	%rax, %rsi
	leaq	.Lubsan_data382(%rip), %rdi
	call	__ubsan_handle_type_mismatch_v1@PLT
.L151:
	.loc 2 183 66 discriminator 2
	movq	%r14, %rax
	movq	%rax, %rdx
	shrq	$3, %rdx
	addq	$2147450880, %rdx
	movzbl	(%rdx), %edx
	testb	%dl, %dl
	je	.L152
	.loc 2 183 66
	movq	%rax, %rdi
	call	__asan_report_load8@PLT
.L152:
	.loc 2 183 66 discriminator 2
	movq	(%r14), %rax
	movq	%rax, %rdx
	movabsq	$-8638671864419, %rax
	xorq	%rdx, %rax
	movq	%rax, %rcx
	movabsq	$-7070675565921424023, %rax
	imulq	%rcx, %rax
	movq	%rax, %rcx
	salq	$47, %rcx
	xorq	%rdx, %rax
	xorq	%rax, %rcx
	movq	%rcx, %rdx
	movabsq	$-7070675565921424023, %rax
	imulq	%rdx, %rax
	movq	%rax, %rdx
	salq	$47, %rdx
	xorq	%rax, %rdx
	movabsq	$-7070675565921424023, %rax
	imulq	%rdx, %rax
	movq	%rax, %rdx
	andl	$127, %edx
	leaq	0(,%rdx,8), %rcx
	leaq	__ubsan_vptr_type_cache(%rip), %rdx
	movq	(%rcx,%rdx), %rdx
	cmpq	%rax, %rdx
	je	.L153
	.loc 2 183 66
	movq	%rax, %rdx
	movq	%r14, %rsi
	leaq	.Lubsan_data383(%rip), %rdi
	call	__ubsan_handle_dynamic_type_cache_miss@PLT
.L153:
	.loc 2 183 66 discriminator 2
	movq	_ZSt4endlIcSt11char_traitsIcEERSt13basic_ostreamIT_T0_ES6_@GOTPCREL(%rip), %rax
	movq	%rax, %rsi
	movq	%r14, %rdi
	call	_ZNSolsEPFRSoS_E@PLT
.LEHE18:
	.loc 2 184 22 is_stmt 1 discriminator 2
	leaq	-2464(%rbx), %rax
	shrq	$3, %rax
	addq	$2147450880, %rax
	movl	$0, (%rax)
	leaq	-3616(%rbx), %rax
	shrq	$3, %rax
	addq	$2147450880, %rax
	movb	$1, (%rax)
	leaq	-3616(%rbx), %rax
	movq	%rax, %rdi
	call	_ZNSaIcEC1Ev@PLT
	leaq	-3616(%rbx), %rdx
	leaq	-2464(%rbx), %rax
	leaq	.LC17(%rip), %rsi
	movq	%rax, %rdi
.LEHB19:
	call	_ZNSt7__cxx1112basic_stringIcSt11char_traitsIcESaIcEEC1IS3_EEPKcRKS3_
.LEHE19:
	leaq	-2464(%rbx), %r14
	movq	%r14, %rax
	testq	%r14, %r14
	je	.L154
	movq	%rax, %rdx
	andl	$7, %edx
	testq	%rdx, %rdx
	je	.L155
.L154:
	.loc 2 184 22 is_stmt 0
	movq	%rax, %rsi
	leaq	.Lubsan_data384(%rip), %rdi
	call	__ubsan_handle_type_mismatch_v1@PLT
.L155:
	.loc 2 184 22 discriminator 2
	leaq	-2880(%rbx), %rcx
	leaq	-2992(%rbx), %rdx
	leaq	-3008(%rbx), %rax
	movq	%rax, %rsi
	movq	%r14, %rdi
.LEHB20:
	call	_Z9loadLevelRKNSt7__cxx1112basic_stringIcSt11char_traitsIcESaIcEEERiS7_R6Player@PLT
.LEHE20:
	movq	%rax, -3808(%rbp)
	leaq	-2464(%rbx), %rax
	movq	%rax, %rdi
	call	_ZNSt7__cxx1112basic_stringIcSt11char_traitsIcESaIcEED1Ev@PLT
	leaq	-2464(%rbx), %rax
	shrq	$3, %rax
	addq	$2147450880, %rax
	movl	$-117901064, (%rax)
	leaq	-3616(%rbx), %rax
	movq	%rax, %rdi
	call	_ZNSaIcED1Ev@PLT
	leaq	-3616(%rbx), %rax
	shrq	$3, %rax
	addq	$2147450880, %rax
	movb	$-8, (%rax)
	.loc 2 186 11 is_stmt 1 discriminator 2
	leaq	_ZSt4cout(%rip), %rax
	movq	%rax, %rdx
	shrq	$3, %rdx
	addq	$2147450880, %rdx
	movzbl	(%rdx), %edx
	testb	%dl, %dl
	je	.L156
	.loc 2 186 11 is_stmt 0
	movq	%rax, %rdi
	call	__asan_report_load8@PLT
.L156:
	.loc 2 186 11 discriminator 4
	movq	_ZSt4cout(%rip), %rax
	movq	%rax, %rdx
	movabsq	$-8638671864419, %rax
	xorq	%rdx, %rax
	movq	%rax, %rcx
	movabsq	$-7070675565921424023, %rax
	imulq	%rcx, %rax
	movq	%rax, %rcx
	salq	$47, %rcx
	xorq	%rdx, %rax
	xorq	%rax, %rcx
	movq	%rcx, %rdx
	movabsq	$-7070675565921424023, %rax
	imulq	%rdx, %rax
	movq	%rax, %rdx
	salq	$47, %rdx
	xorq	%rax, %rdx
	movabsq	$-7070675565921424023, %rax
	imulq	%rdx, %rax
	movq	%rax, %rdx
	andl	$127, %edx
	leaq	0(,%rdx,8), %rcx
	leaq	__ubsan_vptr_type_cache(%rip), %rdx
	movq	(%rcx,%rdx), %rdx
	cmpq	%rax, %rdx
	je	.L157
	.loc 2 186 11
	movq	%rax, %rdx
	leaq	_ZSt4cout(%rip), %rsi
	leaq	.Lubsan_data385(%rip), %rdi
	call	__ubsan_handle_dynamic_type_cache_miss@PLT
.L157:
	.loc 2 186 11 discriminator 4
	movq	_ZSt4endlIcSt11char_traitsIcEERSt13basic_ostreamIT_T0_ES6_@GOTPCREL(%rip), %rax
	movq	%rax, %rsi
	leaq	_ZSt4cout(%rip), %rdi
.LEHB21:
	call	_ZNSolsEPFRSoS_E@PLT
	movq	%rax, %r14
	.loc 2 186 17 is_stmt 1 discriminator 4
	movq	%r14, %rax
	testq	%r14, %r14
	je	.L158
	.loc 2 186 17 is_stmt 0 discriminator 1
	movq	%rax, %rdx
	andl	$7, %edx
	testq	%rdx, %rdx
	je	.L159
.L158:
	.loc 2 186 17
	movq	%rax, %rsi
	leaq	.Lubsan_data386(%rip), %rdi
	call	__ubsan_handle_type_mismatch_v1@PLT
.L159:
	.loc 2 186 17 discriminator 1
	leaq	.LC18(%rip), %rsi
	movq	%r14, %rdi
	call	_ZStlsISt11char_traitsIcEERSt13basic_ostreamIcT_ES5_PKc@PLT
	movq	%rax, %r14
	.loc 2 186 62 is_stmt 1 discriminator 1
	movq	%r14, %rax
	testq	%r14, %r14
	je	.L160
	.loc 2 186 62 is_stmt 0 discriminator 2
	movq	%rax, %rdx
	andl	$7, %edx
	testq	%rdx, %rdx
	je	.L161
.L160:
	.loc 2 186 62
	movq	%rax, %rsi
	leaq	.Lubsan_data387(%rip), %rdi
	call	__ubsan_handle_type_mismatch_v1@PLT
.L161:
	.loc 2 186 62 discriminator 2
	movq	%r14, %rax
	testq	%r14, %r14
	je	.L162
	movq	%rax, %rdx
	andl	$7, %edx
	testq	%rdx, %rdx
	je	.L163
.L162:
	.loc 2 186 62
	movq	%rax, %rsi
	leaq	.Lubsan_data388(%rip), %rdi
	call	__ubsan_handle_type_mismatch_v1@PLT
.L163:
	.loc 2 186 62 discriminator 2
	movq	%r14, %rax
	movq	%rax, %rdx
	shrq	$3, %rdx
	addq	$2147450880, %rdx
	movzbl	(%rdx), %edx
	testb	%dl, %dl
	je	.L164
	.loc 2 186 62
	movq	%rax, %rdi
	call	__asan_report_load8@PLT
.L164:
	.loc 2 186 62 discriminator 2
	movq	(%r14), %rax
	movq	%rax, %rdx
	movabsq	$-8638671864419, %rax
	xorq	%rdx, %rax
	movq	%rax, %rcx
	movabsq	$-7070675565921424023, %rax
	imulq	%rcx, %rax
	movq	%rax, %rcx
	salq	$47, %rcx
	xorq	%rdx, %rax
	xorq	%rax, %rcx
	movq	%rcx, %rdx
	movabsq	$-7070675565921424023, %rax
	imulq	%rdx, %rax
	movq	%rax, %rdx
	salq	$47, %rdx
	xorq	%rax, %rdx
	movabsq	$-7070675565921424023, %rax
	imulq	%rdx, %rax
	movq	%rax, %rdx
	andl	$127, %edx
	leaq	0(,%rdx,8), %rcx
	leaq	__ubsan_vptr_type_cache(%rip), %rdx
	movq	(%rcx,%rdx), %rdx
	cmpq	%rax, %rdx
	je	.L165
	.loc 2 186 62
	movq	%rax, %rdx
	movq	%r14, %rsi
	leaq	.Lubsan_data389(%rip), %rdi
	call	__ubsan_handle_dynamic_type_cache_miss@PLT
.L165:
	.loc 2 186 62 discriminator 2
	movq	_ZSt4endlIcSt11char_traitsIcEERSt13basic_ostreamIT_T0_ES6_@GOTPCREL(%rip), %rax
	movq	%rax, %rsi
	movq	%r14, %rdi
	call	_ZNSolsEPFRSoS_E@PLT
.LEHE21:
	.loc 2 187 22 is_stmt 1 discriminator 2
	leaq	-2400(%rbx), %rax
	shrq	$3, %rax
	addq	$2147450880, %rax
	movl	$0, (%rax)
	leaq	-3600(%rbx), %rax
	shrq	$3, %rax
	addq	$2147450880, %rax
	movb	$1, (%rax)
	leaq	-3600(%rbx), %rax
	movq	%rax, %rdi
	call	_ZNSaIcEC1Ev@PLT
	leaq	-3600(%rbx), %rdx
	leaq	-2400(%rbx), %rax
	leaq	.LC19(%rip), %rsi
	movq	%rax, %rdi
.LEHB22:
	call	_ZNSt7__cxx1112basic_stringIcSt11char_traitsIcESaIcEEC1IS3_EEPKcRKS3_
.LEHE22:
	leaq	-2400(%rbx), %r14
	movq	%r14, %rax
	testq	%r14, %r14
	je	.L166
	movq	%rax, %rdx
	andl	$7, %edx
	testq	%rdx, %rdx
	je	.L167
.L166:
	.loc 2 187 22 is_stmt 0
	movq	%rax, %rsi
	leaq	.Lubsan_data390(%rip), %rdi
	call	__ubsan_handle_type_mismatch_v1@PLT
.L167:
	.loc 2 187 22 discriminator 2
	leaq	-2880(%rbx), %rcx
	leaq	-2992(%rbx), %rdx
	leaq	-3008(%rbx), %rax
	movq	%rax, %rsi
	movq	%r14, %rdi
.LEHB23:
	call	_Z9loadLevelRKNSt7__cxx1112basic_stringIcSt11char_traitsIcESaIcEEERiS7_R6Player@PLT
.LEHE23:
	movq	%rax, -3808(%rbp)
	leaq	-2400(%rbx), %rax
	movq	%rax, %rdi
	call	_ZNSt7__cxx1112basic_stringIcSt11char_traitsIcESaIcEED1Ev@PLT
	leaq	-2400(%rbx), %rax
	shrq	$3, %rax
	addq	$2147450880, %rax
	movl	$-117901064, (%rax)
	leaq	-3600(%rbx), %rax
	movq	%rax, %rdi
	call	_ZNSaIcED1Ev@PLT
	leaq	-3600(%rbx), %rax
	shrq	$3, %rax
	addq	$2147450880, %rax
	movb	$-8, (%rax)
	.loc 2 188 11 is_stmt 1 discriminator 2
	leaq	_ZSt4cout(%rip), %rax
	movq	%rax, %rdx
	shrq	$3, %rdx
	addq	$2147450880, %rdx
	movzbl	(%rdx), %edx
	testb	%dl, %dl
	je	.L168
	.loc 2 188 11 is_stmt 0
	movq	%rax, %rdi
	call	__asan_report_load8@PLT
.L168:
	.loc 2 188 11 discriminator 4
	movq	_ZSt4cout(%rip), %rax
	movq	%rax, %rdx
	movabsq	$-8638671864419, %rax
	xorq	%rdx, %rax
	movq	%rax, %rcx
	movabsq	$-7070675565921424023, %rax
	imulq	%rcx, %rax
	movq	%rax, %rcx
	salq	$47, %rcx
	xorq	%rdx, %rax
	xorq	%rax, %rcx
	movq	%rcx, %rdx
	movabsq	$-7070675565921424023, %rax
	imulq	%rdx, %rax
	movq	%rax, %rdx
	salq	$47, %rdx
	xorq	%rax, %rdx
	movabsq	$-7070675565921424023, %rax
	imulq	%rdx, %rax
	movq	%rax, %rdx
	andl	$127, %edx
	leaq	0(,%rdx,8), %rcx
	leaq	__ubsan_vptr_type_cache(%rip), %rdx
	movq	(%rcx,%rdx), %rdx
	cmpq	%rax, %rdx
	je	.L169
	.loc 2 188 11
	movq	%rax, %rdx
	leaq	_ZSt4cout(%rip), %rsi
	leaq	.Lubsan_data391(%rip), %rdi
	call	__ubsan_handle_dynamic_type_cache_miss@PLT
.L169:
	.loc 2 188 11 discriminator 4
	movq	_ZSt4endlIcSt11char_traitsIcEERSt13basic_ostreamIT_T0_ES6_@GOTPCREL(%rip), %rax
	movq	%rax, %rsi
	leaq	_ZSt4cout(%rip), %rdi
.LEHB24:
	call	_ZNSolsEPFRSoS_E@PLT
	movq	%rax, %r14
	.loc 2 188 17 is_stmt 1 discriminator 4
	movq	%r14, %rax
	testq	%r14, %r14
	je	.L170
	.loc 2 188 17 is_stmt 0 discriminator 1
	movq	%rax, %rdx
	andl	$7, %edx
	testq	%rdx, %rdx
	je	.L171
.L170:
	.loc 2 188 17
	movq	%rax, %rsi
	leaq	.Lubsan_data392(%rip), %rdi
	call	__ubsan_handle_type_mismatch_v1@PLT
.L171:
	.loc 2 188 17 discriminator 1
	leaq	.LC20(%rip), %rsi
	movq	%r14, %rdi
	call	_ZStlsISt11char_traitsIcEERSt13basic_ostreamIcT_ES5_PKc@PLT
	movq	%rax, %r14
	.loc 2 188 55 is_stmt 1 discriminator 1
	movq	%r14, %rax
	testq	%r14, %r14
	je	.L172
	.loc 2 188 55 is_stmt 0 discriminator 2
	movq	%rax, %rdx
	andl	$7, %edx
	testq	%rdx, %rdx
	je	.L173
.L172:
	.loc 2 188 55
	movq	%rax, %rsi
	leaq	.Lubsan_data393(%rip), %rdi
	call	__ubsan_handle_type_mismatch_v1@PLT
.L173:
	.loc 2 188 55 discriminator 2
	movq	%r14, %rax
	testq	%r14, %r14
	je	.L174
	movq	%rax, %rdx
	andl	$7, %edx
	testq	%rdx, %rdx
	je	.L175
.L174:
	.loc 2 188 55
	movq	%rax, %rsi
	leaq	.Lubsan_data394(%rip), %rdi
	call	__ubsan_handle_type_mismatch_v1@PLT
.L175:
	.loc 2 188 55 discriminator 2
	movq	%r14, %rax
	movq	%rax, %rdx
	shrq	$3, %rdx
	addq	$2147450880, %rdx
	movzbl	(%rdx), %edx
	testb	%dl, %dl
	je	.L176
	.loc 2 188 55
	movq	%rax, %rdi
	call	__asan_report_load8@PLT
.L176:
	.loc 2 188 55 discriminator 2
	movq	(%r14), %rax
	movq	%rax, %rdx
	movabsq	$-8638671864419, %rax
	xorq	%rdx, %rax
	movq	%rax, %rcx
	movabsq	$-7070675565921424023, %rax
	imulq	%rcx, %rax
	movq	%rax, %rcx
	salq	$47, %rcx
	xorq	%rdx, %rax
	xorq	%rax, %rcx
	movq	%rcx, %rdx
	movabsq	$-7070675565921424023, %rax
	imulq	%rdx, %rax
	movq	%rax, %rdx
	salq	$47, %rdx
	xorq	%rax, %rdx
	movabsq	$-7070675565921424023, %rax
	imulq	%rdx, %rax
	movq	%rax, %rdx
	andl	$127, %edx
	leaq	0(,%rdx,8), %rcx
	leaq	__ubsan_vptr_type_cache(%rip), %rdx
	movq	(%rcx,%rdx), %rdx
	cmpq	%rax, %rdx
	je	.L177
	.loc 2 188 55
	movq	%rax, %rdx
	movq	%r14, %rsi
	leaq	.Lubsan_data395(%rip), %rdi
	call	__ubsan_handle_dynamic_type_cache_miss@PLT
.L177:
	.loc 2 188 55 discriminator 2
	movq	_ZSt4endlIcSt11char_traitsIcEERSt13basic_ostreamIT_T0_ES6_@GOTPCREL(%rip), %rax
	movq	%rax, %rsi
	movq	%r14, %rdi
	call	_ZNSolsEPFRSoS_E@PLT
.LEHE24:
	.loc 2 189 22 is_stmt 1 discriminator 2
	leaq	-2336(%rbx), %rax
	shrq	$3, %rax
	addq	$2147450880, %rax
	movl	$0, (%rax)
	leaq	-3584(%rbx), %rax
	shrq	$3, %rax
	addq	$2147450880, %rax
	movb	$1, (%rax)
	leaq	-3584(%rbx), %rax
	movq	%rax, %rdi
	call	_ZNSaIcEC1Ev@PLT
	leaq	-3584(%rbx), %rdx
	leaq	-2336(%rbx), %rax
	leaq	.LC21(%rip), %rsi
	movq	%rax, %rdi
.LEHB25:
	call	_ZNSt7__cxx1112basic_stringIcSt11char_traitsIcESaIcEEC1IS3_EEPKcRKS3_
.LEHE25:
	leaq	-2336(%rbx), %r14
	movq	%r14, %rax
	testq	%r14, %r14
	je	.L178
	movq	%rax, %rdx
	andl	$7, %edx
	testq	%rdx, %rdx
	je	.L179
.L178:
	.loc 2 189 22 is_stmt 0
	movq	%rax, %rsi
	leaq	.Lubsan_data396(%rip), %rdi
	call	__ubsan_handle_type_mismatch_v1@PLT
.L179:
	.loc 2 189 22 discriminator 2
	leaq	-2880(%rbx), %rcx
	leaq	-2992(%rbx), %rdx
	leaq	-3008(%rbx), %rax
	movq	%rax, %rsi
	movq	%r14, %rdi
.LEHB26:
	call	_Z9loadLevelRKNSt7__cxx1112basic_stringIcSt11char_traitsIcESaIcEEERiS7_R6Player@PLT
.LEHE26:
	movq	%rax, -3808(%rbp)
	leaq	-2336(%rbx), %rax
	movq	%rax, %rdi
	call	_ZNSt7__cxx1112basic_stringIcSt11char_traitsIcESaIcEED1Ev@PLT
	leaq	-2336(%rbx), %rax
	shrq	$3, %rax
	addq	$2147450880, %rax
	movl	$-117901064, (%rax)
	leaq	-3584(%rbx), %rax
	movq	%rax, %rdi
	call	_ZNSaIcED1Ev@PLT
	leaq	-3584(%rbx), %rax
	shrq	$3, %rax
	addq	$2147450880, %rax
	movb	$-8, (%rax)
	.loc 2 190 11 is_stmt 1 discriminator 2
	leaq	_ZSt4cout(%rip), %rax
	movq	%rax, %rdx
	shrq	$3, %rdx
	addq	$2147450880, %rdx
	movzbl	(%rdx), %edx
	testb	%dl, %dl
	je	.L180
	.loc 2 190 11 is_stmt 0
	movq	%rax, %rdi
	call	__asan_report_load8@PLT
.L180:
	.loc 2 190 11 discriminator 4
	movq	_ZSt4cout(%rip), %rax
	movq	%rax, %rdx
	movabsq	$-8638671864419, %rax
	xorq	%rdx, %rax
	movq	%rax, %rcx
	movabsq	$-7070675565921424023, %rax
	imulq	%rcx, %rax
	movq	%rax, %rcx
	salq	$47, %rcx
	xorq	%rdx, %rax
	xorq	%rax, %rcx
	movq	%rcx, %rdx
	movabsq	$-7070675565921424023, %rax
	imulq	%rdx, %rax
	movq	%rax, %rdx
	salq	$47, %rdx
	xorq	%rax, %rdx
	movabsq	$-7070675565921424023, %rax
	imulq	%rdx, %rax
	movq	%rax, %rdx
	andl	$127, %edx
	leaq	0(,%rdx,8), %rcx
	leaq	__ubsan_vptr_type_cache(%rip), %rdx
	movq	(%rcx,%rdx), %rdx
	cmpq	%rax, %rdx
	je	.L181
	.loc 2 190 11
	movq	%rax, %rdx
	leaq	_ZSt4cout(%rip), %rsi
	leaq	.Lubsan_data397(%rip), %rdi
	call	__ubsan_handle_dynamic_type_cache_miss@PLT
.L181:
	.loc 2 190 11 discriminator 4
	movq	_ZSt4endlIcSt11char_traitsIcEERSt13basic_ostreamIT_T0_ES6_@GOTPCREL(%rip), %rax
	movq	%rax, %rsi
	leaq	_ZSt4cout(%rip), %rdi
.LEHB27:
	call	_ZNSolsEPFRSoS_E@PLT
	movq	%rax, %r14
	.loc 2 190 17 is_stmt 1 discriminator 4
	movq	%r14, %rax
	testq	%r14, %r14
	je	.L182
	.loc 2 190 17 is_stmt 0 discriminator 1
	movq	%rax, %rdx
	andl	$7, %edx
	testq	%rdx, %rdx
	je	.L183
.L182:
	.loc 2 190 17
	movq	%rax, %rsi
	leaq	.Lubsan_data398(%rip), %rdi
	call	__ubsan_handle_type_mismatch_v1@PLT
.L183:
	.loc 2 190 17 discriminator 1
	leaq	.LC22(%rip), %rsi
	movq	%r14, %rdi
	call	_ZStlsISt11char_traitsIcEERSt13basic_ostreamIcT_ES5_PKc@PLT
	movq	%rax, %r14
	.loc 2 190 71 is_stmt 1 discriminator 1
	movq	%r14, %rax
	testq	%r14, %r14
	je	.L184
	.loc 2 190 71 is_stmt 0 discriminator 2
	movq	%rax, %rdx
	andl	$7, %edx
	testq	%rdx, %rdx
	je	.L185
.L184:
	.loc 2 190 71
	movq	%rax, %rsi
	leaq	.Lubsan_data399(%rip), %rdi
	call	__ubsan_handle_type_mismatch_v1@PLT
.L185:
	.loc 2 190 71 discriminator 2
	movq	%r14, %rax
	testq	%r14, %r14
	je	.L186
	movq	%rax, %rdx
	andl	$7, %edx
	testq	%rdx, %rdx
	je	.L187
.L186:
	.loc 2 190 71
	movq	%rax, %rsi
	leaq	.Lubsan_data400(%rip), %rdi
	call	__ubsan_handle_type_mismatch_v1@PLT
.L187:
	.loc 2 190 71 discriminator 2
	movq	%r14, %rax
	movq	%rax, %rdx
	shrq	$3, %rdx
	addq	$2147450880, %rdx
	movzbl	(%rdx), %edx
	testb	%dl, %dl
	je	.L188
	.loc 2 190 71
	movq	%rax, %rdi
	call	__asan_report_load8@PLT
.L188:
	.loc 2 190 71 discriminator 2
	movq	(%r14), %rax
	movq	%rax, %rdx
	movabsq	$-8638671864419, %rax
	xorq	%rdx, %rax
	movq	%rax, %rcx
	movabsq	$-7070675565921424023, %rax
	imulq	%rcx, %rax
	movq	%rax, %rcx
	salq	$47, %rcx
	xorq	%rdx, %rax
	xorq	%rax, %rcx
	movq	%rcx, %rdx
	movabsq	$-7070675565921424023, %rax
	imulq	%rdx, %rax
	movq	%rax, %rdx
	salq	$47, %rdx
	xorq	%rax, %rdx
	movabsq	$-7070675565921424023, %rax
	imulq	%rdx, %rax
	movq	%rax, %rdx
	andl	$127, %edx
	leaq	0(,%rdx,8), %rcx
	leaq	__ubsan_vptr_type_cache(%rip), %rdx
	movq	(%rcx,%rdx), %rdx
	cmpq	%rax, %rdx
	je	.L189
	.loc 2 190 71
	movq	%rax, %rdx
	movq	%r14, %rsi
	leaq	.Lubsan_data401(%rip), %rdi
	call	__ubsan_handle_dynamic_type_cache_miss@PLT
.L189:
	.loc 2 190 71 discriminator 2
	movq	_ZSt4endlIcSt11char_traitsIcEERSt13basic_ostreamIT_T0_ES6_@GOTPCREL(%rip), %rax
	movq	%rax, %rsi
	movq	%r14, %rdi
	call	_ZNSolsEPFRSoS_E@PLT
.LEHE27:
	.loc 2 191 22 is_stmt 1 discriminator 2
	leaq	-2272(%rbx), %rax
	shrq	$3, %rax
	addq	$2147450880, %rax
	movl	$0, (%rax)
	leaq	-3568(%rbx), %rax
	shrq	$3, %rax
	addq	$2147450880, %rax
	movb	$1, (%rax)
	leaq	-3568(%rbx), %rax
	movq	%rax, %rdi
	call	_ZNSaIcEC1Ev@PLT
	leaq	-3568(%rbx), %rdx
	leaq	-2272(%rbx), %rax
	leaq	.LC23(%rip), %rsi
	movq	%rax, %rdi
.LEHB28:
	call	_ZNSt7__cxx1112basic_stringIcSt11char_traitsIcESaIcEEC1IS3_EEPKcRKS3_
.LEHE28:
	leaq	-2272(%rbx), %r14
	movq	%r14, %rax
	testq	%r14, %r14
	je	.L190
	movq	%rax, %rdx
	andl	$7, %edx
	testq	%rdx, %rdx
	je	.L191
.L190:
	.loc 2 191 22 is_stmt 0
	movq	%rax, %rsi
	leaq	.Lubsan_data402(%rip), %rdi
	call	__ubsan_handle_type_mismatch_v1@PLT
.L191:
	.loc 2 191 22 discriminator 2
	leaq	-2880(%rbx), %rcx
	leaq	-2992(%rbx), %rdx
	leaq	-3008(%rbx), %rax
	movq	%rax, %rsi
	movq	%r14, %rdi
.LEHB29:
	call	_Z9loadLevelRKNSt7__cxx1112basic_stringIcSt11char_traitsIcESaIcEEERiS7_R6Player@PLT
.LEHE29:
	movq	%rax, -3808(%rbp)
	leaq	-2272(%rbx), %rax
	movq	%rax, %rdi
	call	_ZNSt7__cxx1112basic_stringIcSt11char_traitsIcESaIcEED1Ev@PLT
	leaq	-2272(%rbx), %rax
	shrq	$3, %rax
	addq	$2147450880, %rax
	movl	$-117901064, (%rax)
	leaq	-3568(%rbx), %rax
	movq	%rax, %rdi
	call	_ZNSaIcED1Ev@PLT
	leaq	-3568(%rbx), %rax
	shrq	$3, %rax
	addq	$2147450880, %rax
	movb	$-8, (%rax)
	.loc 2 193 11 is_stmt 1 discriminator 2
	leaq	_ZSt4cout(%rip), %rax
	movq	%rax, %rdx
	shrq	$3, %rdx
	addq	$2147450880, %rdx
	movzbl	(%rdx), %edx
	testb	%dl, %dl
	je	.L192
	.loc 2 193 11 is_stmt 0
	movq	%rax, %rdi
	call	__asan_report_load8@PLT
.L192:
	.loc 2 193 11 discriminator 4
	movq	_ZSt4cout(%rip), %rax
	movq	%rax, %rdx
	movabsq	$-8638671864419, %rax
	xorq	%rdx, %rax
	movq	%rax, %rcx
	movabsq	$-7070675565921424023, %rax
	imulq	%rcx, %rax
	movq	%rax, %rcx
	salq	$47, %rcx
	xorq	%rdx, %rax
	xorq	%rax, %rcx
	movq	%rcx, %rdx
	movabsq	$-7070675565921424023, %rax
	imulq	%rdx, %rax
	movq	%rax, %rdx
	salq	$47, %rdx
	xorq	%rax, %rdx
	movabsq	$-7070675565921424023, %rax
	imulq	%rdx, %rax
	movq	%rax, %rdx
	andl	$127, %edx
	leaq	0(,%rdx,8), %rcx
	leaq	__ubsan_vptr_type_cache(%rip), %rdx
	movq	(%rcx,%rdx), %rdx
	cmpq	%rax, %rdx
	je	.L193
	.loc 2 193 11
	movq	%rax, %rdx
	leaq	_ZSt4cout(%rip), %rsi
	leaq	.Lubsan_data403(%rip), %rdi
	call	__ubsan_handle_dynamic_type_cache_miss@PLT
.L193:
	.loc 2 193 11 discriminator 4
	movq	_ZSt4endlIcSt11char_traitsIcEERSt13basic_ostreamIT_T0_ES6_@GOTPCREL(%rip), %rax
	movq	%rax, %rsi
	leaq	_ZSt4cout(%rip), %rdi
.LEHB30:
	call	_ZNSolsEPFRSoS_E@PLT
	movq	%rax, %r14
	.loc 2 193 17 is_stmt 1 discriminator 4
	movq	%r14, %rax
	testq	%r14, %r14
	je	.L194
	.loc 2 193 17 is_stmt 0 discriminator 1
	movq	%rax, %rdx
	andl	$7, %edx
	testq	%rdx, %rdx
	je	.L195
.L194:
	.loc 2 193 17
	movq	%rax, %rsi
	leaq	.Lubsan_data404(%rip), %rdi
	call	__ubsan_handle_type_mismatch_v1@PLT
.L195:
	.loc 2 193 17 discriminator 1
	leaq	.LC24(%rip), %rsi
	movq	%r14, %rdi
	call	_ZStlsISt11char_traitsIcEERSt13basic_ostreamIcT_ES5_PKc@PLT
	movq	%rax, %r14
	.loc 2 193 62 is_stmt 1 discriminator 1
	movq	%r14, %rax
	testq	%r14, %r14
	je	.L196
	.loc 2 193 62 is_stmt 0 discriminator 2
	movq	%rax, %rdx
	andl	$7, %edx
	testq	%rdx, %rdx
	je	.L197
.L196:
	.loc 2 193 62
	movq	%rax, %rsi
	leaq	.Lubsan_data405(%rip), %rdi
	call	__ubsan_handle_type_mismatch_v1@PLT
.L197:
	.loc 2 193 62 discriminator 2
	movq	%r14, %rax
	testq	%r14, %r14
	je	.L198
	movq	%rax, %rdx
	andl	$7, %edx
	testq	%rdx, %rdx
	je	.L199
.L198:
	.loc 2 193 62
	movq	%rax, %rsi
	leaq	.Lubsan_data406(%rip), %rdi
	call	__ubsan_handle_type_mismatch_v1@PLT
.L199:
	.loc 2 193 62 discriminator 2
	movq	%r14, %rax
	movq	%rax, %rdx
	shrq	$3, %rdx
	addq	$2147450880, %rdx
	movzbl	(%rdx), %edx
	testb	%dl, %dl
	je	.L200
	.loc 2 193 62
	movq	%rax, %rdi
	call	__asan_report_load8@PLT
.L200:
	.loc 2 193 62 discriminator 2
	movq	(%r14), %rax
	movq	%rax, %rdx
	movabsq	$-8638671864419, %rax
	xorq	%rdx, %rax
	movq	%rax, %rcx
	movabsq	$-7070675565921424023, %rax
	imulq	%rcx, %rax
	movq	%rax, %rcx
	salq	$47, %rcx
	xorq	%rdx, %rax
	xorq	%rax, %rcx
	movq	%rcx, %rdx
	movabsq	$-7070675565921424023, %rax
	imulq	%rdx, %rax
	movq	%rax, %rdx
	salq	$47, %rdx
	xorq	%rax, %rdx
	movabsq	$-7070675565921424023, %rax
	imulq	%rdx, %rax
	movq	%rax, %rdx
	andl	$127, %edx
	leaq	0(,%rdx,8), %rcx
	leaq	__ubsan_vptr_type_cache(%rip), %rdx
	movq	(%rcx,%rdx), %rdx
	cmpq	%rax, %rdx
	je	.L201
	.loc 2 193 62
	movq	%rax, %rdx
	movq	%r14, %rsi
	leaq	.Lubsan_data407(%rip), %rdi
	call	__ubsan_handle_dynamic_type_cache_miss@PLT
.L201:
	.loc 2 193 62 discriminator 2
	movq	_ZSt4endlIcSt11char_traitsIcEERSt13basic_ostreamIT_T0_ES6_@GOTPCREL(%rip), %rax
	movq	%rax, %rsi
	movq	%r14, %rdi
	call	_ZNSolsEPFRSoS_E@PLT
.LEHE30:
	.loc 2 194 22 is_stmt 1 discriminator 2
	leaq	-2208(%rbx), %rax
	shrq	$3, %rax
	addq	$2147450880, %rax
	movl	$0, (%rax)
	leaq	-3552(%rbx), %rax
	shrq	$3, %rax
	addq	$2147450880, %rax
	movb	$1, (%rax)
	leaq	-3552(%rbx), %rax
	movq	%rax, %rdi
	call	_ZNSaIcEC1Ev@PLT
	leaq	-3552(%rbx), %rdx
	leaq	-2208(%rbx), %rax
	leaq	.LC25(%rip), %rsi
	movq	%rax, %rdi
.LEHB31:
	call	_ZNSt7__cxx1112basic_stringIcSt11char_traitsIcESaIcEEC1IS3_EEPKcRKS3_
.LEHE31:
	leaq	-2208(%rbx), %r14
	movq	%r14, %rax
	testq	%r14, %r14
	je	.L202
	movq	%rax, %rdx
	andl	$7, %edx
	testq	%rdx, %rdx
	je	.L203
.L202:
	.loc 2 194 22 is_stmt 0
	movq	%rax, %rsi
	leaq	.Lubsan_data408(%rip), %rdi
	call	__ubsan_handle_type_mismatch_v1@PLT
.L203:
	.loc 2 194 22 discriminator 2
	leaq	-2880(%rbx), %rcx
	leaq	-2992(%rbx), %rdx
	leaq	-3008(%rbx), %rax
	movq	%rax, %rsi
	movq	%r14, %rdi
.LEHB32:
	call	_Z9loadLevelRKNSt7__cxx1112basic_stringIcSt11char_traitsIcESaIcEEERiS7_R6Player@PLT
.LEHE32:
	movq	%rax, -3808(%rbp)
	leaq	-2208(%rbx), %rax
	movq	%rax, %rdi
	call	_ZNSt7__cxx1112basic_stringIcSt11char_traitsIcESaIcEED1Ev@PLT
	leaq	-2208(%rbx), %rax
	shrq	$3, %rax
	addq	$2147450880, %rax
	movl	$-117901064, (%rax)
	leaq	-3552(%rbx), %rax
	movq	%rax, %rdi
	call	_ZNSaIcED1Ev@PLT
	leaq	-3552(%rbx), %rax
	shrq	$3, %rax
	addq	$2147450880, %rax
	movb	$-8, (%rax)
	.loc 2 195 11 is_stmt 1 discriminator 2
	leaq	_ZSt4cout(%rip), %rax
	movq	%rax, %rdx
	shrq	$3, %rdx
	addq	$2147450880, %rdx
	movzbl	(%rdx), %edx
	testb	%dl, %dl
	je	.L204
	.loc 2 195 11 is_stmt 0
	movq	%rax, %rdi
	call	__asan_report_load8@PLT
.L204:
	.loc 2 195 11 discriminator 4
	movq	_ZSt4cout(%rip), %rax
	movq	%rax, %rdx
	movabsq	$-8638671864419, %rax
	xorq	%rdx, %rax
	movq	%rax, %rcx
	movabsq	$-7070675565921424023, %rax
	imulq	%rcx, %rax
	movq	%rax, %rcx
	salq	$47, %rcx
	xorq	%rdx, %rax
	xorq	%rax, %rcx
	movq	%rcx, %rdx
	movabsq	$-7070675565921424023, %rax
	imulq	%rdx, %rax
	movq	%rax, %rdx
	salq	$47, %rdx
	xorq	%rax, %rdx
	movabsq	$-7070675565921424023, %rax
	imulq	%rdx, %rax
	movq	%rax, %rdx
	andl	$127, %edx
	leaq	0(,%rdx,8), %rcx
	leaq	__ubsan_vptr_type_cache(%rip), %rdx
	movq	(%rcx,%rdx), %rdx
	cmpq	%rax, %rdx
	je	.L205
	.loc 2 195 11
	movq	%rax, %rdx
	leaq	_ZSt4cout(%rip), %rsi
	leaq	.Lubsan_data409(%rip), %rdi
	call	__ubsan_handle_dynamic_type_cache_miss@PLT
.L205:
	.loc 2 195 11 discriminator 4
	movq	_ZSt4endlIcSt11char_traitsIcEERSt13basic_ostreamIT_T0_ES6_@GOTPCREL(%rip), %rax
	movq	%rax, %rsi
	leaq	_ZSt4cout(%rip), %rdi
.LEHB33:
	call	_ZNSolsEPFRSoS_E@PLT
	movq	%rax, %r14
	.loc 2 195 17 is_stmt 1 discriminator 4
	movq	%r14, %rax
	testq	%r14, %r14
	je	.L206
	.loc 2 195 17 is_stmt 0 discriminator 1
	movq	%rax, %rdx
	andl	$7, %edx
	testq	%rdx, %rdx
	je	.L207
.L206:
	.loc 2 195 17
	movq	%rax, %rsi
	leaq	.Lubsan_data410(%rip), %rdi
	call	__ubsan_handle_type_mismatch_v1@PLT
.L207:
	.loc 2 195 17 discriminator 1
	leaq	.LC26(%rip), %rsi
	movq	%r14, %rdi
	call	_ZStlsISt11char_traitsIcEERSt13basic_ostreamIcT_ES5_PKc@PLT
	movq	%rax, %r14
	.loc 2 195 55 is_stmt 1 discriminator 1
	movq	%r14, %rax
	testq	%r14, %r14
	je	.L208
	.loc 2 195 55 is_stmt 0 discriminator 2
	movq	%rax, %rdx
	andl	$7, %edx
	testq	%rdx, %rdx
	je	.L209
.L208:
	.loc 2 195 55
	movq	%rax, %rsi
	leaq	.Lubsan_data411(%rip), %rdi
	call	__ubsan_handle_type_mismatch_v1@PLT
.L209:
	.loc 2 195 55 discriminator 2
	movq	%r14, %rax
	testq	%r14, %r14
	je	.L210
	movq	%rax, %rdx
	andl	$7, %edx
	testq	%rdx, %rdx
	je	.L211
.L210:
	.loc 2 195 55
	movq	%rax, %rsi
	leaq	.Lubsan_data412(%rip), %rdi
	call	__ubsan_handle_type_mismatch_v1@PLT
.L211:
	.loc 2 195 55 discriminator 2
	movq	%r14, %rax
	movq	%rax, %rdx
	shrq	$3, %rdx
	addq	$2147450880, %rdx
	movzbl	(%rdx), %edx
	testb	%dl, %dl
	je	.L212
	.loc 2 195 55
	movq	%rax, %rdi
	call	__asan_report_load8@PLT
.L212:
	.loc 2 195 55 discriminator 2
	movq	(%r14), %rax
	movq	%rax, %rdx
	movabsq	$-8638671864419, %rax
	xorq	%rdx, %rax
	movq	%rax, %rcx
	movabsq	$-7070675565921424023, %rax
	imulq	%rcx, %rax
	movq	%rax, %rcx
	salq	$47, %rcx
	xorq	%rdx, %rax
	xorq	%rax, %rcx
	movq	%rcx, %rdx
	movabsq	$-7070675565921424023, %rax
	imulq	%rdx, %rax
	movq	%rax, %rdx
	salq	$47, %rdx
	xorq	%rax, %rdx
	movabsq	$-7070675565921424023, %rax
	imulq	%rdx, %rax
	movq	%rax, %rdx
	andl	$127, %edx
	leaq	0(,%rdx,8), %rcx
	leaq	__ubsan_vptr_type_cache(%rip), %rdx
	movq	(%rcx,%rdx), %rdx
	cmpq	%rax, %rdx
	je	.L213
	.loc 2 195 55
	movq	%rax, %rdx
	movq	%r14, %rsi
	leaq	.Lubsan_data413(%rip), %rdi
	call	__ubsan_handle_dynamic_type_cache_miss@PLT
.L213:
	.loc 2 195 55 discriminator 2
	movq	_ZSt4endlIcSt11char_traitsIcEERSt13basic_ostreamIT_T0_ES6_@GOTPCREL(%rip), %rax
	movq	%rax, %rsi
	movq	%r14, %rdi
	call	_ZNSolsEPFRSoS_E@PLT
.LEHE33:
	.loc 2 196 22 is_stmt 1 discriminator 2
	leaq	-2144(%rbx), %rax
	shrq	$3, %rax
	addq	$2147450880, %rax
	movl	$0, (%rax)
	leaq	-3536(%rbx), %rax
	shrq	$3, %rax
	addq	$2147450880, %rax
	movb	$1, (%rax)
	leaq	-3536(%rbx), %rax
	movq	%rax, %rdi
	call	_ZNSaIcEC1Ev@PLT
	leaq	-3536(%rbx), %rdx
	leaq	-2144(%rbx), %rax
	leaq	.LC27(%rip), %rsi
	movq	%rax, %rdi
.LEHB34:
	call	_ZNSt7__cxx1112basic_stringIcSt11char_traitsIcESaIcEEC1IS3_EEPKcRKS3_
.LEHE34:
	leaq	-2144(%rbx), %r14
	movq	%r14, %rax
	testq	%r14, %r14
	je	.L214
	movq	%rax, %rdx
	andl	$7, %edx
	testq	%rdx, %rdx
	je	.L215
.L214:
	.loc 2 196 22 is_stmt 0
	movq	%rax, %rsi
	leaq	.Lubsan_data414(%rip), %rdi
	call	__ubsan_handle_type_mismatch_v1@PLT
.L215:
	.loc 2 196 22 discriminator 2
	leaq	-2880(%rbx), %rcx
	leaq	-2992(%rbx), %rdx
	leaq	-3008(%rbx), %rax
	movq	%rax, %rsi
	movq	%r14, %rdi
.LEHB35:
	call	_Z9loadLevelRKNSt7__cxx1112basic_stringIcSt11char_traitsIcESaIcEEERiS7_R6Player@PLT
.LEHE35:
	movq	%rax, -3808(%rbp)
	leaq	-2144(%rbx), %rax
	movq	%rax, %rdi
	call	_ZNSt7__cxx1112basic_stringIcSt11char_traitsIcESaIcEED1Ev@PLT
	leaq	-2144(%rbx), %rax
	shrq	$3, %rax
	addq	$2147450880, %rax
	movl	$-117901064, (%rax)
	leaq	-3536(%rbx), %rax
	movq	%rax, %rdi
	call	_ZNSaIcED1Ev@PLT
	leaq	-3536(%rbx), %rax
	shrq	$3, %rax
	addq	$2147450880, %rax
	movb	$-8, (%rax)
	.loc 2 197 11 is_stmt 1 discriminator 2
	leaq	_ZSt4cout(%rip), %rax
	movq	%rax, %rdx
	shrq	$3, %rdx
	addq	$2147450880, %rdx
	movzbl	(%rdx), %edx
	testb	%dl, %dl
	je	.L216
	.loc 2 197 11 is_stmt 0
	movq	%rax, %rdi
	call	__asan_report_load8@PLT
.L216:
	.loc 2 197 11 discriminator 4
	movq	_ZSt4cout(%rip), %rax
	movq	%rax, %rdx
	movabsq	$-8638671864419, %rax
	xorq	%rdx, %rax
	movq	%rax, %rcx
	movabsq	$-7070675565921424023, %rax
	imulq	%rcx, %rax
	movq	%rax, %rcx
	salq	$47, %rcx
	xorq	%rdx, %rax
	xorq	%rax, %rcx
	movq	%rcx, %rdx
	movabsq	$-7070675565921424023, %rax
	imulq	%rdx, %rax
	movq	%rax, %rdx
	salq	$47, %rdx
	xorq	%rax, %rdx
	movabsq	$-7070675565921424023, %rax
	imulq	%rdx, %rax
	movq	%rax, %rdx
	andl	$127, %edx
	leaq	0(,%rdx,8), %rcx
	leaq	__ubsan_vptr_type_cache(%rip), %rdx
	movq	(%rcx,%rdx), %rdx
	cmpq	%rax, %rdx
	je	.L217
	.loc 2 197 11
	movq	%rax, %rdx
	leaq	_ZSt4cout(%rip), %rsi
	leaq	.Lubsan_data415(%rip), %rdi
	call	__ubsan_handle_dynamic_type_cache_miss@PLT
.L217:
	.loc 2 197 11 discriminator 4
	movq	_ZSt4endlIcSt11char_traitsIcEERSt13basic_ostreamIT_T0_ES6_@GOTPCREL(%rip), %rax
	movq	%rax, %rsi
	leaq	_ZSt4cout(%rip), %rdi
.LEHB36:
	call	_ZNSolsEPFRSoS_E@PLT
	movq	%rax, %r14
	.loc 2 197 17 is_stmt 1 discriminator 4
	movq	%r14, %rax
	testq	%r14, %r14
	je	.L218
	.loc 2 197 17 is_stmt 0 discriminator 1
	movq	%rax, %rdx
	andl	$7, %edx
	testq	%rdx, %rdx
	je	.L219
.L218:
	.loc 2 197 17
	movq	%rax, %rsi
	leaq	.Lubsan_data416(%rip), %rdi
	call	__ubsan_handle_type_mismatch_v1@PLT
.L219:
	.loc 2 197 17 discriminator 1
	leaq	.LC28(%rip), %rsi
	movq	%r14, %rdi
	call	_ZStlsISt11char_traitsIcEERSt13basic_ostreamIcT_ES5_PKc@PLT
	movq	%rax, %r14
	.loc 2 197 71 is_stmt 1 discriminator 1
	movq	%r14, %rax
	testq	%r14, %r14
	je	.L220
	.loc 2 197 71 is_stmt 0 discriminator 2
	movq	%rax, %rdx
	andl	$7, %edx
	testq	%rdx, %rdx
	je	.L221
.L220:
	.loc 2 197 71
	movq	%rax, %rsi
	leaq	.Lubsan_data417(%rip), %rdi
	call	__ubsan_handle_type_mismatch_v1@PLT
.L221:
	.loc 2 197 71 discriminator 2
	movq	%r14, %rax
	testq	%r14, %r14
	je	.L222
	movq	%rax, %rdx
	andl	$7, %edx
	testq	%rdx, %rdx
	je	.L223
.L222:
	.loc 2 197 71
	movq	%rax, %rsi
	leaq	.Lubsan_data418(%rip), %rdi
	call	__ubsan_handle_type_mismatch_v1@PLT
.L223:
	.loc 2 197 71 discriminator 2
	movq	%r14, %rax
	movq	%rax, %rdx
	shrq	$3, %rdx
	addq	$2147450880, %rdx
	movzbl	(%rdx), %edx
	testb	%dl, %dl
	je	.L224
	.loc 2 197 71
	movq	%rax, %rdi
	call	__asan_report_load8@PLT
.L224:
	.loc 2 197 71 discriminator 2
	movq	(%r14), %rax
	movq	%rax, %rdx
	movabsq	$-8638671864419, %rax
	xorq	%rdx, %rax
	movq	%rax, %rcx
	movabsq	$-7070675565921424023, %rax
	imulq	%rcx, %rax
	movq	%rax, %rcx
	salq	$47, %rcx
	xorq	%rdx, %rax
	xorq	%rax, %rcx
	movq	%rcx, %rdx
	movabsq	$-7070675565921424023, %rax
	imulq	%rdx, %rax
	movq	%rax, %rdx
	salq	$47, %rdx
	xorq	%rax, %rdx
	movabsq	$-7070675565921424023, %rax
	imulq	%rdx, %rax
	movq	%rax, %rdx
	andl	$127, %edx
	leaq	0(,%rdx,8), %rcx
	leaq	__ubsan_vptr_type_cache(%rip), %rdx
	movq	(%rcx,%rdx), %rdx
	cmpq	%rax, %rdx
	je	.L225
	.loc 2 197 71
	movq	%rax, %rdx
	movq	%r14, %rsi
	leaq	.Lubsan_data419(%rip), %rdi
	call	__ubsan_handle_dynamic_type_cache_miss@PLT
.L225:
	.loc 2 197 71 discriminator 2
	movq	_ZSt4endlIcSt11char_traitsIcEERSt13basic_ostreamIT_T0_ES6_@GOTPCREL(%rip), %rax
	movq	%rax, %rsi
	movq	%r14, %rdi
	call	_ZNSolsEPFRSoS_E@PLT
.LEHE36:
	.loc 2 198 22 is_stmt 1 discriminator 2
	leaq	-2080(%rbx), %rax
	shrq	$3, %rax
	addq	$2147450880, %rax
	movl	$0, (%rax)
	leaq	-3520(%rbx), %rax
	shrq	$3, %rax
	addq	$2147450880, %rax
	movb	$1, (%rax)
	leaq	-3520(%rbx), %rax
	movq	%rax, %rdi
	call	_ZNSaIcEC1Ev@PLT
	leaq	-3520(%rbx), %rdx
	leaq	-2080(%rbx), %rax
	leaq	.LC29(%rip), %rsi
	movq	%rax, %rdi
.LEHB37:
	call	_ZNSt7__cxx1112basic_stringIcSt11char_traitsIcESaIcEEC1IS3_EEPKcRKS3_
.LEHE37:
	leaq	-2080(%rbx), %r14
	movq	%r14, %rax
	testq	%r14, %r14
	je	.L226
	movq	%rax, %rdx
	andl	$7, %edx
	testq	%rdx, %rdx
	je	.L227
.L226:
	.loc 2 198 22 is_stmt 0
	movq	%rax, %rsi
	leaq	.Lubsan_data420(%rip), %rdi
	call	__ubsan_handle_type_mismatch_v1@PLT
.L227:
	.loc 2 198 22 discriminator 2
	leaq	-2880(%rbx), %rcx
	leaq	-2992(%rbx), %rdx
	leaq	-3008(%rbx), %rax
	movq	%rax, %rsi
	movq	%r14, %rdi
.LEHB38:
	call	_Z9loadLevelRKNSt7__cxx1112basic_stringIcSt11char_traitsIcESaIcEEERiS7_R6Player@PLT
.LEHE38:
	movq	%rax, -3808(%rbp)
	leaq	-2080(%rbx), %rax
	movq	%rax, %rdi
	call	_ZNSt7__cxx1112basic_stringIcSt11char_traitsIcESaIcEED1Ev@PLT
	leaq	-2080(%rbx), %rax
	shrq	$3, %rax
	addq	$2147450880, %rax
	movl	$-117901064, (%rax)
	leaq	-3520(%rbx), %rax
	movq	%rax, %rdi
	call	_ZNSaIcED1Ev@PLT
	leaq	-3520(%rbx), %rax
	shrq	$3, %rax
	addq	$2147450880, %rax
	movb	$-8, (%rax)
	.loc 2 200 11 is_stmt 1 discriminator 2
	leaq	_ZSt4cout(%rip), %rax
	movq	%rax, %rdx
	shrq	$3, %rdx
	addq	$2147450880, %rdx
	movzbl	(%rdx), %edx
	testb	%dl, %dl
	je	.L228
	.loc 2 200 11 is_stmt 0
	movq	%rax, %rdi
	call	__asan_report_load8@PLT
.L228:
	.loc 2 200 11 discriminator 4
	movq	_ZSt4cout(%rip), %rax
	movq	%rax, %rdx
	movabsq	$-8638671864419, %rax
	xorq	%rdx, %rax
	movq	%rax, %rcx
	movabsq	$-7070675565921424023, %rax
	imulq	%rcx, %rax
	movq	%rax, %rcx
	salq	$47, %rcx
	xorq	%rdx, %rax
	xorq	%rax, %rcx
	movq	%rcx, %rdx
	movabsq	$-7070675565921424023, %rax
	imulq	%rdx, %rax
	movq	%rax, %rdx
	salq	$47, %rdx
	xorq	%rax, %rdx
	movabsq	$-7070675565921424023, %rax
	imulq	%rdx, %rax
	movq	%rax, %rdx
	andl	$127, %edx
	leaq	0(,%rdx,8), %rcx
	leaq	__ubsan_vptr_type_cache(%rip), %rdx
	movq	(%rcx,%rdx), %rdx
	cmpq	%rax, %rdx
	je	.L229
	.loc 2 200 11
	movq	%rax, %rdx
	leaq	_ZSt4cout(%rip), %rsi
	leaq	.Lubsan_data421(%rip), %rdi
	call	__ubsan_handle_dynamic_type_cache_miss@PLT
.L229:
	.loc 2 200 11 discriminator 4
	movq	_ZSt4endlIcSt11char_traitsIcEERSt13basic_ostreamIT_T0_ES6_@GOTPCREL(%rip), %rax
	movq	%rax, %rsi
	leaq	_ZSt4cout(%rip), %rdi
.LEHB39:
	call	_ZNSolsEPFRSoS_E@PLT
	movq	%rax, %r14
	.loc 2 200 17 is_stmt 1 discriminator 4
	movq	%r14, %rax
	testq	%r14, %r14
	je	.L230
	.loc 2 200 17 is_stmt 0 discriminator 1
	movq	%rax, %rdx
	andl	$7, %edx
	testq	%rdx, %rdx
	je	.L231
.L230:
	.loc 2 200 17
	movq	%rax, %rsi
	leaq	.Lubsan_data422(%rip), %rdi
	call	__ubsan_handle_type_mismatch_v1@PLT
.L231:
	.loc 2 200 17 discriminator 1
	leaq	.LC30(%rip), %rsi
	movq	%r14, %rdi
	call	_ZStlsISt11char_traitsIcEERSt13basic_ostreamIcT_ES5_PKc@PLT
	movq	%rax, %r14
	.loc 2 200 65 is_stmt 1 discriminator 1
	movq	%r14, %rax
	testq	%r14, %r14
	je	.L232
	.loc 2 200 65 is_stmt 0 discriminator 2
	movq	%rax, %rdx
	andl	$7, %edx
	testq	%rdx, %rdx
	je	.L233
.L232:
	.loc 2 200 65
	movq	%rax, %rsi
	leaq	.Lubsan_data423(%rip), %rdi
	call	__ubsan_handle_type_mismatch_v1@PLT
.L233:
	.loc 2 200 65 discriminator 2
	movq	%r14, %rax
	testq	%r14, %r14
	je	.L234
	movq	%rax, %rdx
	andl	$7, %edx
	testq	%rdx, %rdx
	je	.L235
.L234:
	.loc 2 200 65
	movq	%rax, %rsi
	leaq	.Lubsan_data424(%rip), %rdi
	call	__ubsan_handle_type_mismatch_v1@PLT
.L235:
	.loc 2 200 65 discriminator 2
	movq	%r14, %rax
	movq	%rax, %rdx
	shrq	$3, %rdx
	addq	$2147450880, %rdx
	movzbl	(%rdx), %edx
	testb	%dl, %dl
	je	.L236
	.loc 2 200 65
	movq	%rax, %rdi
	call	__asan_report_load8@PLT
.L236:
	.loc 2 200 65 discriminator 2
	movq	(%r14), %rax
	movq	%rax, %rdx
	movabsq	$-8638671864419, %rax
	xorq	%rdx, %rax
	movq	%rax, %rcx
	movabsq	$-7070675565921424023, %rax
	imulq	%rcx, %rax
	movq	%rax, %rcx
	salq	$47, %rcx
	xorq	%rdx, %rax
	xorq	%rax, %rcx
	movq	%rcx, %rdx
	movabsq	$-7070675565921424023, %rax
	imulq	%rdx, %rax
	movq	%rax, %rdx
	salq	$47, %rdx
	xorq	%rax, %rdx
	movabsq	$-7070675565921424023, %rax
	imulq	%rdx, %rax
	movq	%rax, %rdx
	andl	$127, %edx
	leaq	0(,%rdx,8), %rcx
	leaq	__ubsan_vptr_type_cache(%rip), %rdx
	movq	(%rcx,%rdx), %rdx
	cmpq	%rax, %rdx
	je	.L237
	.loc 2 200 65
	movq	%rax, %rdx
	movq	%r14, %rsi
	leaq	.Lubsan_data425(%rip), %rdi
	call	__ubsan_handle_dynamic_type_cache_miss@PLT
.L237:
	.loc 2 200 65 discriminator 2
	movq	_ZSt4endlIcSt11char_traitsIcEERSt13basic_ostreamIT_T0_ES6_@GOTPCREL(%rip), %rax
	movq	%rax, %rsi
	movq	%r14, %rdi
	call	_ZNSolsEPFRSoS_E@PLT
.LEHE39:
	.loc 2 201 22 is_stmt 1 discriminator 2
	leaq	-2016(%rbx), %rax
	shrq	$3, %rax
	addq	$2147450880, %rax
	movl	$0, (%rax)
	leaq	-3504(%rbx), %rax
	shrq	$3, %rax
	addq	$2147450880, %rax
	movb	$1, (%rax)
	leaq	-3504(%rbx), %rax
	movq	%rax, %rdi
	call	_ZNSaIcEC1Ev@PLT
	leaq	-3504(%rbx), %rdx
	leaq	-2016(%rbx), %rax
	leaq	.LC31(%rip), %rsi
	movq	%rax, %rdi
.LEHB40:
	call	_ZNSt7__cxx1112basic_stringIcSt11char_traitsIcESaIcEEC1IS3_EEPKcRKS3_
.LEHE40:
	leaq	-2016(%rbx), %r14
	movq	%r14, %rax
	testq	%r14, %r14
	je	.L238
	movq	%rax, %rdx
	andl	$7, %edx
	testq	%rdx, %rdx
	je	.L239
.L238:
	.loc 2 201 22 is_stmt 0
	movq	%rax, %rsi
	leaq	.Lubsan_data426(%rip), %rdi
	call	__ubsan_handle_type_mismatch_v1@PLT
.L239:
	.loc 2 201 22 discriminator 2
	leaq	-2880(%rbx), %rcx
	leaq	-2992(%rbx), %rdx
	leaq	-3008(%rbx), %rax
	movq	%rax, %rsi
	movq	%r14, %rdi
.LEHB41:
	call	_Z9loadLevelRKNSt7__cxx1112basic_stringIcSt11char_traitsIcESaIcEEERiS7_R6Player@PLT
.LEHE41:
	movq	%rax, -3808(%rbp)
	leaq	-2016(%rbx), %rax
	movq	%rax, %rdi
	call	_ZNSt7__cxx1112basic_stringIcSt11char_traitsIcESaIcEED1Ev@PLT
	leaq	-2016(%rbx), %rax
	shrq	$3, %rax
	addq	$2147450880, %rax
	movl	$-117901064, (%rax)
	leaq	-3504(%rbx), %rax
	movq	%rax, %rdi
	call	_ZNSaIcED1Ev@PLT
	leaq	-3504(%rbx), %rax
	shrq	$3, %rax
	addq	$2147450880, %rax
	movb	$-8, (%rax)
	.loc 2 202 11 is_stmt 1 discriminator 2
	leaq	_ZSt4cout(%rip), %rax
	movq	%rax, %rdx
	shrq	$3, %rdx
	addq	$2147450880, %rdx
	movzbl	(%rdx), %edx
	testb	%dl, %dl
	je	.L240
	.loc 2 202 11 is_stmt 0
	movq	%rax, %rdi
	call	__asan_report_load8@PLT
.L240:
	.loc 2 202 11 discriminator 4
	movq	_ZSt4cout(%rip), %rax
	movq	%rax, %rdx
	movabsq	$-8638671864419, %rax
	xorq	%rdx, %rax
	movq	%rax, %rcx
	movabsq	$-7070675565921424023, %rax
	imulq	%rcx, %rax
	movq	%rax, %rcx
	salq	$47, %rcx
	xorq	%rdx, %rax
	xorq	%rax, %rcx
	movq	%rcx, %rdx
	movabsq	$-7070675565921424023, %rax
	imulq	%rdx, %rax
	movq	%rax, %rdx
	salq	$47, %rdx
	xorq	%rax, %rdx
	movabsq	$-7070675565921424023, %rax
	imulq	%rdx, %rax
	movq	%rax, %rdx
	andl	$127, %edx
	leaq	0(,%rdx,8), %rcx
	leaq	__ubsan_vptr_type_cache(%rip), %rdx
	movq	(%rcx,%rdx), %rdx
	cmpq	%rax, %rdx
	je	.L241
	.loc 2 202 11
	movq	%rax, %rdx
	leaq	_ZSt4cout(%rip), %rsi
	leaq	.Lubsan_data427(%rip), %rdi
	call	__ubsan_handle_dynamic_type_cache_miss@PLT
.L241:
	.loc 2 202 11 discriminator 4
	movq	_ZSt4endlIcSt11char_traitsIcEERSt13basic_ostreamIT_T0_ES6_@GOTPCREL(%rip), %rax
	movq	%rax, %rsi
	leaq	_ZSt4cout(%rip), %rdi
.LEHB42:
	call	_ZNSolsEPFRSoS_E@PLT
	movq	%rax, %r14
	.loc 2 202 17 is_stmt 1 discriminator 4
	movq	%r14, %rax
	testq	%r14, %r14
	je	.L242
	.loc 2 202 17 is_stmt 0 discriminator 1
	movq	%rax, %rdx
	andl	$7, %edx
	testq	%rdx, %rdx
	je	.L243
.L242:
	.loc 2 202 17
	movq	%rax, %rsi
	leaq	.Lubsan_data428(%rip), %rdi
	call	__ubsan_handle_type_mismatch_v1@PLT
.L243:
	.loc 2 202 17 discriminator 1
	leaq	.LC32(%rip), %rsi
	movq	%r14, %rdi
	call	_ZStlsISt11char_traitsIcEERSt13basic_ostreamIcT_ES5_PKc@PLT
	movq	%rax, %r14
	.loc 2 202 62 is_stmt 1 discriminator 1
	movq	%r14, %rax
	testq	%r14, %r14
	je	.L244
	.loc 2 202 62 is_stmt 0 discriminator 2
	movq	%rax, %rdx
	andl	$7, %edx
	testq	%rdx, %rdx
	je	.L245
.L244:
	.loc 2 202 62
	movq	%rax, %rsi
	leaq	.Lubsan_data429(%rip), %rdi
	call	__ubsan_handle_type_mismatch_v1@PLT
.L245:
	.loc 2 202 62 discriminator 2
	movq	%r14, %rax
	testq	%r14, %r14
	je	.L246
	movq	%rax, %rdx
	andl	$7, %edx
	testq	%rdx, %rdx
	je	.L247
.L246:
	.loc 2 202 62
	movq	%rax, %rsi
	leaq	.Lubsan_data430(%rip), %rdi
	call	__ubsan_handle_type_mismatch_v1@PLT
.L247:
	.loc 2 202 62 discriminator 2
	movq	%r14, %rax
	movq	%rax, %rdx
	shrq	$3, %rdx
	addq	$2147450880, %rdx
	movzbl	(%rdx), %edx
	testb	%dl, %dl
	je	.L248
	.loc 2 202 62
	movq	%rax, %rdi
	call	__asan_report_load8@PLT
.L248:
	.loc 2 202 62 discriminator 2
	movq	(%r14), %rax
	movq	%rax, %rdx
	movabsq	$-8638671864419, %rax
	xorq	%rdx, %rax
	movq	%rax, %rcx
	movabsq	$-7070675565921424023, %rax
	imulq	%rcx, %rax
	movq	%rax, %rcx
	salq	$47, %rcx
	xorq	%rdx, %rax
	xorq	%rax, %rcx
	movq	%rcx, %rdx
	movabsq	$-7070675565921424023, %rax
	imulq	%rdx, %rax
	movq	%rax, %rdx
	salq	$47, %rdx
	xorq	%rax, %rdx
	movabsq	$-7070675565921424023, %rax
	imulq	%rdx, %rax
	movq	%rax, %rdx
	andl	$127, %edx
	leaq	0(,%rdx,8), %rcx
	leaq	__ubsan_vptr_type_cache(%rip), %rdx
	movq	(%rcx,%rdx), %rdx
	cmpq	%rax, %rdx
	je	.L249
	.loc 2 202 62
	movq	%rax, %rdx
	movq	%r14, %rsi
	leaq	.Lubsan_data431(%rip), %rdi
	call	__ubsan_handle_dynamic_type_cache_miss@PLT
.L249:
	.loc 2 202 62 discriminator 2
	movq	_ZSt4endlIcSt11char_traitsIcEERSt13basic_ostreamIT_T0_ES6_@GOTPCREL(%rip), %rax
	movq	%rax, %rsi
	movq	%r14, %rdi
	call	_ZNSolsEPFRSoS_E@PLT
.LEHE42:
	.loc 2 203 22 is_stmt 1 discriminator 2
	leaq	-1952(%rbx), %rax
	shrq	$3, %rax
	addq	$2147450880, %rax
	movl	$0, (%rax)
	leaq	-3488(%rbx), %rax
	shrq	$3, %rax
	addq	$2147450880, %rax
	movb	$1, (%rax)
	leaq	-3488(%rbx), %rax
	movq	%rax, %rdi
	call	_ZNSaIcEC1Ev@PLT
	leaq	-3488(%rbx), %rdx
	leaq	-1952(%rbx), %rax
	leaq	.LC33(%rip), %rsi
	movq	%rax, %rdi
.LEHB43:
	call	_ZNSt7__cxx1112basic_stringIcSt11char_traitsIcESaIcEEC1IS3_EEPKcRKS3_
.LEHE43:
	leaq	-1952(%rbx), %r14
	movq	%r14, %rax
	testq	%r14, %r14
	je	.L250
	movq	%rax, %rdx
	andl	$7, %edx
	testq	%rdx, %rdx
	je	.L251
.L250:
	.loc 2 203 22 is_stmt 0
	movq	%rax, %rsi
	leaq	.Lubsan_data432(%rip), %rdi
	call	__ubsan_handle_type_mismatch_v1@PLT
.L251:
	.loc 2 203 22 discriminator 2
	leaq	-2880(%rbx), %rcx
	leaq	-2992(%rbx), %rdx
	leaq	-3008(%rbx), %rax
	movq	%rax, %rsi
	movq	%r14, %rdi
.LEHB44:
	call	_Z9loadLevelRKNSt7__cxx1112basic_stringIcSt11char_traitsIcESaIcEEERiS7_R6Player@PLT
.LEHE44:
	movq	%rax, -3808(%rbp)
	leaq	-1952(%rbx), %rax
	movq	%rax, %rdi
	call	_ZNSt7__cxx1112basic_stringIcSt11char_traitsIcESaIcEED1Ev@PLT
	leaq	-1952(%rbx), %rax
	shrq	$3, %rax
	addq	$2147450880, %rax
	movl	$-117901064, (%rax)
	leaq	-3488(%rbx), %rax
	movq	%rax, %rdi
	call	_ZNSaIcED1Ev@PLT
	leaq	-3488(%rbx), %rax
	shrq	$3, %rax
	addq	$2147450880, %rax
	movb	$-8, (%rax)
	.loc 2 204 11 is_stmt 1 discriminator 2
	leaq	_ZSt4cout(%rip), %rax
	movq	%rax, %rdx
	shrq	$3, %rdx
	addq	$2147450880, %rdx
	movzbl	(%rdx), %edx
	testb	%dl, %dl
	je	.L252
	.loc 2 204 11 is_stmt 0
	movq	%rax, %rdi
	call	__asan_report_load8@PLT
.L252:
	.loc 2 204 11 discriminator 4
	movq	_ZSt4cout(%rip), %rax
	movq	%rax, %rdx
	movabsq	$-8638671864419, %rax
	xorq	%rdx, %rax
	movq	%rax, %rcx
	movabsq	$-7070675565921424023, %rax
	imulq	%rcx, %rax
	movq	%rax, %rcx
	salq	$47, %rcx
	xorq	%rdx, %rax
	xorq	%rax, %rcx
	movq	%rcx, %rdx
	movabsq	$-7070675565921424023, %rax
	imulq	%rdx, %rax
	movq	%rax, %rdx
	salq	$47, %rdx
	xorq	%rax, %rdx
	movabsq	$-7070675565921424023, %rax
	imulq	%rdx, %rax
	movq	%rax, %rdx
	andl	$127, %edx
	leaq	0(,%rdx,8), %rcx
	leaq	__ubsan_vptr_type_cache(%rip), %rdx
	movq	(%rcx,%rdx), %rdx
	cmpq	%rax, %rdx
	je	.L253
	.loc 2 204 11
	movq	%rax, %rdx
	leaq	_ZSt4cout(%rip), %rsi
	leaq	.Lubsan_data433(%rip), %rdi
	call	__ubsan_handle_dynamic_type_cache_miss@PLT
.L253:
	.loc 2 204 11 discriminator 4
	movq	_ZSt4endlIcSt11char_traitsIcEERSt13basic_ostreamIT_T0_ES6_@GOTPCREL(%rip), %rax
	movq	%rax, %rsi
	leaq	_ZSt4cout(%rip), %rdi
.LEHB45:
	call	_ZNSolsEPFRSoS_E@PLT
	movq	%rax, %r14
	.loc 2 204 17 is_stmt 1 discriminator 4
	movq	%r14, %rax
	testq	%r14, %r14
	je	.L254
	.loc 2 204 17 is_stmt 0 discriminator 1
	movq	%rax, %rdx
	andl	$7, %edx
	testq	%rdx, %rdx
	je	.L255
.L254:
	.loc 2 204 17
	movq	%rax, %rsi
	leaq	.Lubsan_data434(%rip), %rdi
	call	__ubsan_handle_type_mismatch_v1@PLT
.L255:
	.loc 2 204 17 discriminator 1
	leaq	.LC34(%rip), %rsi
	movq	%r14, %rdi
	call	_ZStlsISt11char_traitsIcEERSt13basic_ostreamIcT_ES5_PKc@PLT
	movq	%rax, %r14
	.loc 2 204 61 is_stmt 1 discriminator 1
	movq	%r14, %rax
	testq	%r14, %r14
	je	.L256
	.loc 2 204 61 is_stmt 0 discriminator 2
	movq	%rax, %rdx
	andl	$7, %edx
	testq	%rdx, %rdx
	je	.L257
.L256:
	.loc 2 204 61
	movq	%rax, %rsi
	leaq	.Lubsan_data435(%rip), %rdi
	call	__ubsan_handle_type_mismatch_v1@PLT
.L257:
	.loc 2 204 61 discriminator 2
	movq	%r14, %rax
	testq	%r14, %r14
	je	.L258
	movq	%rax, %rdx
	andl	$7, %edx
	testq	%rdx, %rdx
	je	.L259
.L258:
	.loc 2 204 61
	movq	%rax, %rsi
	leaq	.Lubsan_data436(%rip), %rdi
	call	__ubsan_handle_type_mismatch_v1@PLT
.L259:
	.loc 2 204 61 discriminator 2
	movq	%r14, %rax
	movq	%rax, %rdx
	shrq	$3, %rdx
	addq	$2147450880, %rdx
	movzbl	(%rdx), %edx
	testb	%dl, %dl
	je	.L260
	.loc 2 204 61
	movq	%rax, %rdi
	call	__asan_report_load8@PLT
.L260:
	.loc 2 204 61 discriminator 2
	movq	(%r14), %rax
	movq	%rax, %rdx
	movabsq	$-8638671864419, %rax
	xorq	%rdx, %rax
	movq	%rax, %rcx
	movabsq	$-7070675565921424023, %rax
	imulq	%rcx, %rax
	movq	%rax, %rcx
	salq	$47, %rcx
	xorq	%rdx, %rax
	xorq	%rax, %rcx
	movq	%rcx, %rdx
	movabsq	$-7070675565921424023, %rax
	imulq	%rdx, %rax
	movq	%rax, %rdx
	salq	$47, %rdx
	xorq	%rax, %rdx
	movabsq	$-7070675565921424023, %rax
	imulq	%rdx, %rax
	movq	%rax, %rdx
	andl	$127, %edx
	leaq	0(,%rdx,8), %rcx
	leaq	__ubsan_vptr_type_cache(%rip), %rdx
	movq	(%rcx,%rdx), %rdx
	cmpq	%rax, %rdx
	je	.L261
	.loc 2 204 61
	movq	%rax, %rdx
	movq	%r14, %rsi
	leaq	.Lubsan_data437(%rip), %rdi
	call	__ubsan_handle_dynamic_type_cache_miss@PLT
.L261:
	.loc 2 204 61 discriminator 2
	movq	_ZSt4endlIcSt11char_traitsIcEERSt13basic_ostreamIT_T0_ES6_@GOTPCREL(%rip), %rax
	movq	%rax, %rsi
	movq	%r14, %rdi
	call	_ZNSolsEPFRSoS_E@PLT
.LEHE45:
	.loc 2 205 22 is_stmt 1 discriminator 2
	leaq	-1888(%rbx), %rax
	shrq	$3, %rax
	addq	$2147450880, %rax
	movl	$0, (%rax)
	leaq	-3472(%rbx), %rax
	shrq	$3, %rax
	addq	$2147450880, %rax
	movb	$1, (%rax)
	leaq	-3472(%rbx), %rax
	movq	%rax, %rdi
	call	_ZNSaIcEC1Ev@PLT
	leaq	-3472(%rbx), %rdx
	leaq	-1888(%rbx), %rax
	leaq	.LC35(%rip), %rsi
	movq	%rax, %rdi
.LEHB46:
	call	_ZNSt7__cxx1112basic_stringIcSt11char_traitsIcESaIcEEC1IS3_EEPKcRKS3_
.LEHE46:
	leaq	-1888(%rbx), %r14
	movq	%r14, %rax
	testq	%r14, %r14
	je	.L262
	movq	%rax, %rdx
	andl	$7, %edx
	testq	%rdx, %rdx
	je	.L263
.L262:
	.loc 2 205 22 is_stmt 0
	movq	%rax, %rsi
	leaq	.Lubsan_data438(%rip), %rdi
	call	__ubsan_handle_type_mismatch_v1@PLT
.L263:
	.loc 2 205 22 discriminator 2
	leaq	-2880(%rbx), %rcx
	leaq	-2992(%rbx), %rdx
	leaq	-3008(%rbx), %rax
	movq	%rax, %rsi
	movq	%r14, %rdi
.LEHB47:
	call	_Z9loadLevelRKNSt7__cxx1112basic_stringIcSt11char_traitsIcESaIcEEERiS7_R6Player@PLT
.LEHE47:
	movq	%rax, -3808(%rbp)
	leaq	-1888(%rbx), %rax
	movq	%rax, %rdi
	call	_ZNSt7__cxx1112basic_stringIcSt11char_traitsIcESaIcEED1Ev@PLT
	leaq	-1888(%rbx), %rax
	shrq	$3, %rax
	addq	$2147450880, %rax
	movl	$-117901064, (%rax)
	leaq	-3472(%rbx), %rax
	movq	%rax, %rdi
	call	_ZNSaIcED1Ev@PLT
	leaq	-3472(%rbx), %rax
	shrq	$3, %rax
	addq	$2147450880, %rax
	movb	$-8, (%rax)
	.loc 2 206 11 is_stmt 1 discriminator 2
	leaq	_ZSt4cout(%rip), %rax
	movq	%rax, %rdx
	shrq	$3, %rdx
	addq	$2147450880, %rdx
	movzbl	(%rdx), %edx
	testb	%dl, %dl
	je	.L264
	.loc 2 206 11 is_stmt 0
	movq	%rax, %rdi
	call	__asan_report_load8@PLT
.L264:
	.loc 2 206 11 discriminator 4
	movq	_ZSt4cout(%rip), %rax
	movq	%rax, %rdx
	movabsq	$-8638671864419, %rax
	xorq	%rdx, %rax
	movq	%rax, %rcx
	movabsq	$-7070675565921424023, %rax
	imulq	%rcx, %rax
	movq	%rax, %rcx
	salq	$47, %rcx
	xorq	%rdx, %rax
	xorq	%rax, %rcx
	movq	%rcx, %rdx
	movabsq	$-7070675565921424023, %rax
	imulq	%rdx, %rax
	movq	%rax, %rdx
	salq	$47, %rdx
	xorq	%rax, %rdx
	movabsq	$-7070675565921424023, %rax
	imulq	%rdx, %rax
	movq	%rax, %rdx
	andl	$127, %edx
	leaq	0(,%rdx,8), %rcx
	leaq	__ubsan_vptr_type_cache(%rip), %rdx
	movq	(%rcx,%rdx), %rdx
	cmpq	%rax, %rdx
	je	.L265
	.loc 2 206 11
	movq	%rax, %rdx
	leaq	_ZSt4cout(%rip), %rsi
	leaq	.Lubsan_data439(%rip), %rdi
	call	__ubsan_handle_dynamic_type_cache_miss@PLT
.L265:
	.loc 2 206 11 discriminator 4
	movq	_ZSt4endlIcSt11char_traitsIcEERSt13basic_ostreamIT_T0_ES6_@GOTPCREL(%rip), %rax
	movq	%rax, %rsi
	leaq	_ZSt4cout(%rip), %rdi
.LEHB48:
	call	_ZNSolsEPFRSoS_E@PLT
	movq	%rax, %r14
	.loc 2 206 17 is_stmt 1 discriminator 4
	movq	%r14, %rax
	testq	%r14, %r14
	je	.L266
	.loc 2 206 17 is_stmt 0 discriminator 1
	movq	%rax, %rdx
	andl	$7, %edx
	testq	%rdx, %rdx
	je	.L267
.L266:
	.loc 2 206 17
	movq	%rax, %rsi
	leaq	.Lubsan_data440(%rip), %rdi
	call	__ubsan_handle_type_mismatch_v1@PLT
.L267:
	.loc 2 206 17 discriminator 1
	leaq	.LC36(%rip), %rsi
	movq	%r14, %rdi
	call	_ZStlsISt11char_traitsIcEERSt13basic_ostreamIcT_ES5_PKc@PLT
	movq	%rax, %r14
	.loc 2 206 59 is_stmt 1 discriminator 1
	movq	%r14, %rax
	testq	%r14, %r14
	je	.L268
	.loc 2 206 59 is_stmt 0 discriminator 2
	movq	%rax, %rdx
	andl	$7, %edx
	testq	%rdx, %rdx
	je	.L269
.L268:
	.loc 2 206 59
	movq	%rax, %rsi
	leaq	.Lubsan_data441(%rip), %rdi
	call	__ubsan_handle_type_mismatch_v1@PLT
.L269:
	.loc 2 206 59 discriminator 2
	movq	%r14, %rax
	testq	%r14, %r14
	je	.L270
	movq	%rax, %rdx
	andl	$7, %edx
	testq	%rdx, %rdx
	je	.L271
.L270:
	.loc 2 206 59
	movq	%rax, %rsi
	leaq	.Lubsan_data442(%rip), %rdi
	call	__ubsan_handle_type_mismatch_v1@PLT
.L271:
	.loc 2 206 59 discriminator 2
	movq	%r14, %rax
	movq	%rax, %rdx
	shrq	$3, %rdx
	addq	$2147450880, %rdx
	movzbl	(%rdx), %edx
	testb	%dl, %dl
	je	.L272
	.loc 2 206 59
	movq	%rax, %rdi
	call	__asan_report_load8@PLT
.L272:
	.loc 2 206 59 discriminator 2
	movq	(%r14), %rax
	movq	%rax, %rdx
	movabsq	$-8638671864419, %rax
	xorq	%rdx, %rax
	movq	%rax, %rcx
	movabsq	$-7070675565921424023, %rax
	imulq	%rcx, %rax
	movq	%rax, %rcx
	salq	$47, %rcx
	xorq	%rdx, %rax
	xorq	%rax, %rcx
	movq	%rcx, %rdx
	movabsq	$-7070675565921424023, %rax
	imulq	%rdx, %rax
	movq	%rax, %rdx
	salq	$47, %rdx
	xorq	%rax, %rdx
	movabsq	$-7070675565921424023, %rax
	imulq	%rdx, %rax
	movq	%rax, %rdx
	andl	$127, %edx
	leaq	0(,%rdx,8), %rcx
	leaq	__ubsan_vptr_type_cache(%rip), %rdx
	movq	(%rcx,%rdx), %rdx
	cmpq	%rax, %rdx
	je	.L273
	.loc 2 206 59
	movq	%rax, %rdx
	movq	%r14, %rsi
	leaq	.Lubsan_data443(%rip), %rdi
	call	__ubsan_handle_dynamic_type_cache_miss@PLT
.L273:
	.loc 2 206 59 discriminator 2
	movq	_ZSt4endlIcSt11char_traitsIcEERSt13basic_ostreamIT_T0_ES6_@GOTPCREL(%rip), %rax
	movq	%rax, %rsi
	movq	%r14, %rdi
	call	_ZNSolsEPFRSoS_E@PLT
.LEHE48:
	.loc 2 207 22 is_stmt 1 discriminator 2
	leaq	-1824(%rbx), %rax
	shrq	$3, %rax
	addq	$2147450880, %rax
	movl	$0, (%rax)
	leaq	-3456(%rbx), %rax
	shrq	$3, %rax
	addq	$2147450880, %rax
	movb	$1, (%rax)
	leaq	-3456(%rbx), %rax
	movq	%rax, %rdi
	call	_ZNSaIcEC1Ev@PLT
	leaq	-3456(%rbx), %rdx
	leaq	-1824(%rbx), %rax
	leaq	.LC37(%rip), %rsi
	movq	%rax, %rdi
.LEHB49:
	call	_ZNSt7__cxx1112basic_stringIcSt11char_traitsIcESaIcEEC1IS3_EEPKcRKS3_
.LEHE49:
	leaq	-1824(%rbx), %r14
	movq	%r14, %rax
	testq	%r14, %r14
	je	.L274
	movq	%rax, %rdx
	andl	$7, %edx
	testq	%rdx, %rdx
	je	.L275
.L274:
	.loc 2 207 22 is_stmt 0
	movq	%rax, %rsi
	leaq	.Lubsan_data444(%rip), %rdi
	call	__ubsan_handle_type_mismatch_v1@PLT
.L275:
	.loc 2 207 22 discriminator 2
	leaq	-2880(%rbx), %rcx
	leaq	-2992(%rbx), %rdx
	leaq	-3008(%rbx), %rax
	movq	%rax, %rsi
	movq	%r14, %rdi
.LEHB50:
	call	_Z9loadLevelRKNSt7__cxx1112basic_stringIcSt11char_traitsIcESaIcEEERiS7_R6Player@PLT
.LEHE50:
	movq	%rax, -3808(%rbp)
	leaq	-1824(%rbx), %rax
	movq	%rax, %rdi
	call	_ZNSt7__cxx1112basic_stringIcSt11char_traitsIcESaIcEED1Ev@PLT
	leaq	-1824(%rbx), %rax
	shrq	$3, %rax
	addq	$2147450880, %rax
	movl	$-117901064, (%rax)
	leaq	-3456(%rbx), %rax
	movq	%rax, %rdi
	call	_ZNSaIcED1Ev@PLT
	leaq	-3456(%rbx), %rax
	shrq	$3, %rax
	addq	$2147450880, %rax
	movb	$-8, (%rax)
	.loc 2 217 11 is_stmt 1 discriminator 2
	leaq	_ZSt4cout(%rip), %rax
	movq	%rax, %rdx
	shrq	$3, %rdx
	addq	$2147450880, %rdx
	movzbl	(%rdx), %edx
	testb	%dl, %dl
	je	.L276
	.loc 2 217 11 is_stmt 0
	movq	%rax, %rdi
	call	__asan_report_load8@PLT
.L276:
	.loc 2 217 11 discriminator 4
	movq	_ZSt4cout(%rip), %rax
	movq	%rax, %rdx
	movabsq	$-8638671864419, %rax
	xorq	%rdx, %rax
	movq	%rax, %rcx
	movabsq	$-7070675565921424023, %rax
	imulq	%rcx, %rax
	movq	%rax, %rcx
	salq	$47, %rcx
	xorq	%rdx, %rax
	xorq	%rax, %rcx
	movq	%rcx, %rdx
	movabsq	$-7070675565921424023, %rax
	imulq	%rdx, %rax
	movq	%rax, %rdx
	salq	$47, %rdx
	xorq	%rax, %rdx
	movabsq	$-7070675565921424023, %rax
	imulq	%rdx, %rax
	movq	%rax, %rdx
	andl	$127, %edx
	leaq	0(,%rdx,8), %rcx
	leaq	__ubsan_vptr_type_cache(%rip), %rdx
	movq	(%rcx,%rdx), %rdx
	cmpq	%rax, %rdx
	je	.L277
	.loc 2 217 11
	movq	%rax, %rdx
	leaq	_ZSt4cout(%rip), %rsi
	leaq	.Lubsan_data445(%rip), %rdi
	call	__ubsan_handle_dynamic_type_cache_miss@PLT
.L277:
	.loc 2 217 11 discriminator 4
	movq	_ZSt4endlIcSt11char_traitsIcEERSt13basic_ostreamIT_T0_ES6_@GOTPCREL(%rip), %rax
	movq	%rax, %rsi
	leaq	_ZSt4cout(%rip), %rdi
.LEHB51:
	call	_ZNSolsEPFRSoS_E@PLT
	movq	%rax, %r14
	.loc 2 217 17 is_stmt 1 discriminator 4
	movq	%r14, %rax
	testq	%r14, %r14
	je	.L278
	.loc 2 217 17 is_stmt 0 discriminator 1
	movq	%rax, %rdx
	andl	$7, %edx
	testq	%rdx, %rdx
	je	.L279
.L278:
	.loc 2 217 17
	movq	%rax, %rsi
	leaq	.Lubsan_data446(%rip), %rdi
	call	__ubsan_handle_type_mismatch_v1@PLT
.L279:
	.loc 2 217 17 discriminator 1
	leaq	.LC38(%rip), %rsi
	movq	%r14, %rdi
	call	_ZStlsISt11char_traitsIcEERSt13basic_ostreamIcT_ES5_PKc@PLT
	movq	%rax, %r14
	.loc 2 217 47 is_stmt 1 discriminator 1
	movq	%r14, %rax
	testq	%r14, %r14
	je	.L280
	.loc 2 217 47 is_stmt 0 discriminator 2
	movq	%rax, %rdx
	andl	$7, %edx
	testq	%rdx, %rdx
	je	.L281
.L280:
	.loc 2 217 47
	movq	%rax, %rsi
	leaq	.Lubsan_data447(%rip), %rdi
	call	__ubsan_handle_type_mismatch_v1@PLT
.L281:
	.loc 2 217 47 discriminator 2
	movq	%r14, %rax
	testq	%r14, %r14
	je	.L282
	movq	%rax, %rdx
	andl	$7, %edx
	testq	%rdx, %rdx
	je	.L283
.L282:
	.loc 2 217 47
	movq	%rax, %rsi
	leaq	.Lubsan_data448(%rip), %rdi
	call	__ubsan_handle_type_mismatch_v1@PLT
.L283:
	.loc 2 217 47 discriminator 2
	movq	%r14, %rax
	movq	%rax, %rdx
	shrq	$3, %rdx
	addq	$2147450880, %rdx
	movzbl	(%rdx), %edx
	testb	%dl, %dl
	je	.L284
	.loc 2 217 47
	movq	%rax, %rdi
	call	__asan_report_load8@PLT
.L284:
	.loc 2 217 47 discriminator 2
	movq	(%r14), %rax
	movq	%rax, %rdx
	movabsq	$-8638671864419, %rax
	xorq	%rdx, %rax
	movq	%rax, %rcx
	movabsq	$-7070675565921424023, %rax
	imulq	%rcx, %rax
	movq	%rax, %rcx
	salq	$47, %rcx
	xorq	%rdx, %rax
	xorq	%rax, %rcx
	movq	%rcx, %rdx
	movabsq	$-7070675565921424023, %rax
	imulq	%rdx, %rax
	movq	%rax, %rdx
	salq	$47, %rdx
	xorq	%rax, %rdx
	movabsq	$-7070675565921424023, %rax
	imulq	%rdx, %rax
	movq	%rax, %rdx
	andl	$127, %edx
	leaq	0(,%rdx,8), %rcx
	leaq	__ubsan_vptr_type_cache(%rip), %rdx
	movq	(%rcx,%rdx), %rdx
	cmpq	%rax, %rdx
	je	.L285
	.loc 2 217 47
	movq	%rax, %rdx
	movq	%r14, %rsi
	leaq	.Lubsan_data449(%rip), %rdi
	call	__ubsan_handle_dynamic_type_cache_miss@PLT
.L285:
	.loc 2 217 47 discriminator 2
	movq	_ZSt4endlIcSt11char_traitsIcEERSt13basic_ostreamIT_T0_ES6_@GOTPCREL(%rip), %rax
	movq	%rax, %rsi
	movq	%r14, %rdi
	call	_ZNSolsEPFRSoS_E@PLT
	movq	%rax, %r14
	.loc 2 217 53 is_stmt 1 discriminator 2
	movq	%r14, %rax
	testq	%r14, %r14
	je	.L286
	.loc 2 217 53 is_stmt 0 discriminator 3
	movq	%rax, %rdx
	andl	$7, %edx
	testq	%rdx, %rdx
	je	.L287
.L286:
	.loc 2 217 53
	movq	%rax, %rsi
	leaq	.Lubsan_data450(%rip), %rdi
	call	__ubsan_handle_type_mismatch_v1@PLT
.L287:
	.loc 2 217 53 discriminator 3
	movq	%r14, %rax
	testq	%r14, %r14
	je	.L288
	movq	%rax, %rdx
	andl	$7, %edx
	testq	%rdx, %rdx
	je	.L289
.L288:
	.loc 2 217 53
	movq	%rax, %rsi
	leaq	.Lubsan_data451(%rip), %rdi
	call	__ubsan_handle_type_mismatch_v1@PLT
.L289:
	.loc 2 217 53 discriminator 3
	movq	%r14, %rax
	movq	%rax, %rdx
	shrq	$3, %rdx
	addq	$2147450880, %rdx
	movzbl	(%rdx), %edx
	testb	%dl, %dl
	je	.L290
	.loc 2 217 53
	movq	%rax, %rdi
	call	__asan_report_load8@PLT
.L290:
	.loc 2 217 53 discriminator 3
	movq	(%r14), %rax
	movq	%rax, %rdx
	movabsq	$-8638671864419, %rax
	xorq	%rdx, %rax
	movq	%rax, %rcx
	movabsq	$-7070675565921424023, %rax
	imulq	%rcx, %rax
	movq	%rax, %rcx
	salq	$47, %rcx
	xorq	%rdx, %rax
	xorq	%rax, %rcx
	movq	%rcx, %rdx
	movabsq	$-7070675565921424023, %rax
	imulq	%rdx, %rax
	movq	%rax, %rdx
	salq	$47, %rdx
	xorq	%rax, %rdx
	movabsq	$-7070675565921424023, %rax
	imulq	%rdx, %rax
	movq	%rax, %rdx
	andl	$127, %edx
	leaq	0(,%rdx,8), %rcx
	leaq	__ubsan_vptr_type_cache(%rip), %rdx
	movq	(%rcx,%rdx), %rdx
	cmpq	%rax, %rdx
	je	.L291
	.loc 2 217 53
	movq	%rax, %rdx
	movq	%r14, %rsi
	leaq	.Lubsan_data452(%rip), %rdi
	call	__ubsan_handle_dynamic_type_cache_miss@PLT
.L291:
	.loc 2 217 53 discriminator 3
	movq	_ZSt4endlIcSt11char_traitsIcEERSt13basic_ostreamIT_T0_ES6_@GOTPCREL(%rip), %rax
	movq	%rax, %rsi
	movq	%r14, %rdi
	call	_ZNSolsEPFRSoS_E@PLT
	.loc 2 220 9 is_stmt 1 discriminator 3
	leaq	-2976(%rbx), %rax
	shrq	$3, %rax
	addq	$2147450880, %rax
	movb	$4, (%rax)
	.loc 2 221 9 discriminator 3
	leaq	-2960(%rbx), %rax
	shrq	$3, %rax
	addq	$2147450880, %rax
	movb	$4, (%rax)
	.loc 2 223 11 discriminator 3
	leaq	_ZSt4cout(%rip), %rax
	movq	%rax, %rdx
	shrq	$3, %rdx
	addq	$2147450880, %rdx
	movzbl	(%rdx), %edx
	testb	%dl, %dl
	je	.L292
	.loc 2 223 11 is_stmt 0
	movq	%rax, %rdi
	call	__asan_report_load8@PLT
.L292:
	movq	_ZSt4cout(%rip), %rax
	movq	%rax, %rdx
	movabsq	$-8638671864419, %rax
	xorq	%rdx, %rax
	movq	%rax, %rcx
	movabsq	$-7070675565921424023, %rax
	imulq	%rcx, %rax
	movq	%rax, %rcx
	salq	$47, %rcx
	xorq	%rdx, %rax
	xorq	%rax, %rcx
	movq	%rcx, %rdx
	movabsq	$-7070675565921424023, %rax
	imulq	%rdx, %rax
	movq	%rax, %rdx
	salq	$47, %rdx
	xorq	%rax, %rdx
	movabsq	$-7070675565921424023, %rax
	imulq	%rdx, %rax
	movq	%rax, %rdx
	andl	$127, %edx
	leaq	0(,%rdx,8), %rcx
	leaq	__ubsan_vptr_type_cache(%rip), %rdx
	movq	(%rcx,%rdx), %rdx
	cmpq	%rax, %rdx
	je	.L293
	movq	%rax, %rdx
	leaq	_ZSt4cout(%rip), %rsi
	leaq	.Lubsan_data453(%rip), %rdi
	call	__ubsan_handle_dynamic_type_cache_miss@PLT
.L293:
	movq	_ZSt4endlIcSt11char_traitsIcEERSt13basic_ostreamIT_T0_ES6_@GOTPCREL(%rip), %rax
	movq	%rax, %rsi
	leaq	_ZSt4cout(%rip), %rdi
	call	_ZNSolsEPFRSoS_E@PLT
	movq	%rax, %r14
	.loc 2 223 17 is_stmt 1
	movq	%r14, %rax
	testq	%r14, %r14
	je	.L294
	.loc 2 223 17 is_stmt 0 discriminator 1
	movq	%rax, %rdx
	andl	$7, %edx
	testq	%rdx, %rdx
	je	.L295
.L294:
	.loc 2 223 17
	movq	%rax, %rsi
	leaq	.Lubsan_data454(%rip), %rdi
	call	__ubsan_handle_type_mismatch_v1@PLT
.L295:
	.loc 2 223 17 discriminator 1
	leaq	.LC39(%rip), %rsi
	movq	%r14, %rdi
	call	_ZStlsISt11char_traitsIcEERSt13basic_ostreamIcT_ES5_PKc@PLT
	movq	%rax, %r14
	.loc 2 223 50 is_stmt 1 discriminator 1
	movq	%r14, %rax
	testq	%r14, %r14
	je	.L296
	.loc 2 223 50 is_stmt 0 discriminator 2
	movq	%rax, %rdx
	andl	$7, %edx
	testq	%rdx, %rdx
	je	.L297
.L296:
	.loc 2 223 50
	movq	%rax, %rsi
	leaq	.Lubsan_data455(%rip), %rdi
	call	__ubsan_handle_type_mismatch_v1@PLT
.L297:
	.loc 2 223 50 discriminator 2
	movq	%r14, %rax
	testq	%r14, %r14
	je	.L298
	movq	%rax, %rdx
	andl	$7, %edx
	testq	%rdx, %rdx
	je	.L299
.L298:
	.loc 2 223 50
	movq	%rax, %rsi
	leaq	.Lubsan_data456(%rip), %rdi
	call	__ubsan_handle_type_mismatch_v1@PLT
.L299:
	.loc 2 223 50 discriminator 2
	movq	%r14, %rax
	movq	%rax, %rdx
	shrq	$3, %rdx
	addq	$2147450880, %rdx
	movzbl	(%rdx), %edx
	testb	%dl, %dl
	je	.L300
	.loc 2 223 50
	movq	%rax, %rdi
	call	__asan_report_load8@PLT
.L300:
	.loc 2 223 50 discriminator 2
	movq	(%r14), %rax
	movq	%rax, %rdx
	movabsq	$-8638671864419, %rax
	xorq	%rdx, %rax
	movq	%rax, %rcx
	movabsq	$-7070675565921424023, %rax
	imulq	%rcx, %rax
	movq	%rax, %rcx
	salq	$47, %rcx
	xorq	%rdx, %rax
	xorq	%rax, %rcx
	movq	%rcx, %rdx
	movabsq	$-7070675565921424023, %rax
	imulq	%rdx, %rax
	movq	%rax, %rdx
	salq	$47, %rdx
	xorq	%rax, %rdx
	movabsq	$-7070675565921424023, %rax
	imulq	%rdx, %rax
	movq	%rax, %rdx
	andl	$127, %edx
	leaq	0(,%rdx,8), %rcx
	leaq	__ubsan_vptr_type_cache(%rip), %rdx
	movq	(%rcx,%rdx), %rdx
	cmpq	%rax, %rdx
	je	.L301
	.loc 2 223 50
	movq	%rax, %rdx
	movq	%r14, %rsi
	leaq	.Lubsan_data457(%rip), %rdi
	call	__ubsan_handle_dynamic_type_cache_miss@PLT
.L301:
	.loc 2 223 50 discriminator 2
	movq	_ZSt4endlIcSt11char_traitsIcEERSt13basic_ostreamIT_T0_ES6_@GOTPCREL(%rip), %rax
	movq	%rax, %rsi
	movq	%r14, %rdi
	call	_ZNSolsEPFRSoS_E@PLT
	.loc 2 224 11 is_stmt 1 discriminator 2
	movb	$119, -3817(%rbp)
	.loc 2 225 17 discriminator 2
	movsbl	-3817(%rbp), %eax
	leaq	-2960(%rbx), %rdx
	leaq	-2976(%rbx), %rcx
	movq	%rcx, %rsi
	movl	%eax, %edi
	call	_Z12getDirectioncRiS_@PLT
	.loc 2 226 11 discriminator 2
	movb	$97, -3817(%rbp)
	.loc 2 227 17 discriminator 2
	movsbl	-3817(%rbp), %eax
	leaq	-2960(%rbx), %rdx
	leaq	-2976(%rbx), %rcx
	movq	%rcx, %rsi
	movl	%eax, %edi
	call	_Z12getDirectioncRiS_@PLT
	.loc 2 228 11 discriminator 2
	movb	$115, -3817(%rbp)
	.loc 2 229 17 discriminator 2
	movsbl	-3817(%rbp), %eax
	leaq	-2960(%rbx), %rdx
	leaq	-2976(%rbx), %rcx
	movq	%rcx, %rsi
	movl	%eax, %edi
	call	_Z12getDirectioncRiS_@PLT
	.loc 2 230 11 discriminator 2
	movb	$100, -3817(%rbp)
	.loc 2 231 17 discriminator 2
	movsbl	-3817(%rbp), %eax
	leaq	-2960(%rbx), %rdx
	leaq	-2976(%rbx), %rcx
	movq	%rcx, %rsi
	movl	%eax, %edi
	call	_Z12getDirectioncRiS_@PLT
	.loc 2 232 11 discriminator 2
	movb	$101, -3817(%rbp)
	.loc 2 233 17 discriminator 2
	movsbl	-3817(%rbp), %eax
	leaq	-2960(%rbx), %rdx
	leaq	-2976(%rbx), %rcx
	movq	%rcx, %rsi
	movl	%eax, %edi
	call	_Z12getDirectioncRiS_@PLT
	.loc 2 234 11 discriminator 2
	movb	$113, -3817(%rbp)
	.loc 2 235 17 discriminator 2
	movsbl	-3817(%rbp), %eax
	leaq	-2960(%rbx), %rdx
	leaq	-2976(%rbx), %rcx
	movq	%rcx, %rsi
	movl	%eax, %edi
	call	_Z12getDirectioncRiS_@PLT
	.loc 2 237 11 discriminator 2
	leaq	_ZSt4cout(%rip), %rax
	movq	%rax, %rdx
	shrq	$3, %rdx
	addq	$2147450880, %rdx
	movzbl	(%rdx), %edx
	testb	%dl, %dl
	je	.L302
	.loc 2 237 11 is_stmt 0
	movq	%rax, %rdi
	call	__asan_report_load8@PLT
.L302:
	movq	_ZSt4cout(%rip), %rax
	movq	%rax, %rdx
	movabsq	$-8638671864419, %rax
	xorq	%rdx, %rax
	movq	%rax, %rcx
	movabsq	$-7070675565921424023, %rax
	imulq	%rcx, %rax
	movq	%rax, %rcx
	salq	$47, %rcx
	xorq	%rdx, %rax
	xorq	%rax, %rcx
	movq	%rcx, %rdx
	movabsq	$-7070675565921424023, %rax
	imulq	%rdx, %rax
	movq	%rax, %rdx
	salq	$47, %rdx
	xorq	%rax, %rdx
	movabsq	$-7070675565921424023, %rax
	imulq	%rdx, %rax
	movq	%rax, %rdx
	andl	$127, %edx
	leaq	0(,%rdx,8), %rcx
	leaq	__ubsan_vptr_type_cache(%rip), %rdx
	movq	(%rcx,%rdx), %rdx
	cmpq	%rax, %rdx
	je	.L303
	movq	%rax, %rdx
	leaq	_ZSt4cout(%rip), %rsi
	leaq	.Lubsan_data458(%rip), %rdi
	call	__ubsan_handle_dynamic_type_cache_miss@PLT
.L303:
	movq	_ZSt4endlIcSt11char_traitsIcEERSt13basic_ostreamIT_T0_ES6_@GOTPCREL(%rip), %rax
	movq	%rax, %rsi
	leaq	_ZSt4cout(%rip), %rdi
	call	_ZNSolsEPFRSoS_E@PLT
	movq	%rax, %r14
	.loc 2 237 17 is_stmt 1
	movq	%r14, %rax
	testq	%r14, %r14
	je	.L304
	.loc 2 237 17 is_stmt 0 discriminator 1
	movq	%rax, %rdx
	andl	$7, %edx
	testq	%rdx, %rdx
	je	.L305
.L304:
	.loc 2 237 17
	movq	%rax, %rsi
	leaq	.Lubsan_data459(%rip), %rdi
	call	__ubsan_handle_type_mismatch_v1@PLT
.L305:
	.loc 2 237 17 discriminator 1
	leaq	.LC40(%rip), %rsi
	movq	%r14, %rdi
	call	_ZStlsISt11char_traitsIcEERSt13basic_ostreamIcT_ES5_PKc@PLT
	movq	%rax, %r14
	.loc 2 237 50 is_stmt 1 discriminator 1
	movq	%r14, %rax
	testq	%r14, %r14
	je	.L306
	.loc 2 237 50 is_stmt 0 discriminator 2
	movq	%rax, %rdx
	andl	$7, %edx
	testq	%rdx, %rdx
	je	.L307
.L306:
	.loc 2 237 50
	movq	%rax, %rsi
	leaq	.Lubsan_data460(%rip), %rdi
	call	__ubsan_handle_type_mismatch_v1@PLT
.L307:
	.loc 2 237 50 discriminator 2
	movq	%r14, %rax
	testq	%r14, %r14
	je	.L308
	movq	%rax, %rdx
	andl	$7, %edx
	testq	%rdx, %rdx
	je	.L309
.L308:
	.loc 2 237 50
	movq	%rax, %rsi
	leaq	.Lubsan_data461(%rip), %rdi
	call	__ubsan_handle_type_mismatch_v1@PLT
.L309:
	.loc 2 237 50 discriminator 2
	movq	%r14, %rax
	movq	%rax, %rdx
	shrq	$3, %rdx
	addq	$2147450880, %rdx
	movzbl	(%rdx), %edx
	testb	%dl, %dl
	je	.L310
	.loc 2 237 50
	movq	%rax, %rdi
	call	__asan_report_load8@PLT
.L310:
	.loc 2 237 50 discriminator 2
	movq	(%r14), %rax
	movq	%rax, %rdx
	movabsq	$-8638671864419, %rax
	xorq	%rdx, %rax
	movq	%rax, %rcx
	movabsq	$-7070675565921424023, %rax
	imulq	%rcx, %rax
	movq	%rax, %rcx
	salq	$47, %rcx
	xorq	%rdx, %rax
	xorq	%rax, %rcx
	movq	%rcx, %rdx
	movabsq	$-7070675565921424023, %rax
	imulq	%rdx, %rax
	movq	%rax, %rdx
	salq	$47, %rdx
	xorq	%rax, %rdx
	movabsq	$-7070675565921424023, %rax
	imulq	%rdx, %rax
	movq	%rax, %rdx
	andl	$127, %edx
	leaq	0(,%rdx,8), %rcx
	leaq	__ubsan_vptr_type_cache(%rip), %rdx
	movq	(%rcx,%rdx), %rdx
	cmpq	%rax, %rdx
	je	.L311
	.loc 2 237 50
	movq	%rax, %rdx
	movq	%r14, %rsi
	leaq	.Lubsan_data462(%rip), %rdi
	call	__ubsan_handle_dynamic_type_cache_miss@PLT
.L311:
	.loc 2 237 50 discriminator 2
	movq	_ZSt4endlIcSt11char_traitsIcEERSt13basic_ostreamIT_T0_ES6_@GOTPCREL(%rip), %rax
	movq	%rax, %rsi
	movq	%r14, %rdi
	call	_ZNSolsEPFRSoS_E@PLT
	.loc 2 238 11 is_stmt 1 discriminator 2
	movb	$87, -3817(%rbp)
	.loc 2 239 17 discriminator 2
	movsbl	-3817(%rbp), %eax
	leaq	-2960(%rbx), %rdx
	leaq	-2976(%rbx), %rcx
	movq	%rcx, %rsi
	movl	%eax, %edi
	call	_Z12getDirectioncRiS_@PLT
	.loc 2 240 11 discriminator 2
	movb	$65, -3817(%rbp)
	.loc 2 241 17 discriminator 2
	movsbl	-3817(%rbp), %eax
	leaq	-2960(%rbx), %rdx
	leaq	-2976(%rbx), %rcx
	movq	%rcx, %rsi
	movl	%eax, %edi
	call	_Z12getDirectioncRiS_@PLT
	.loc 2 242 11 discriminator 2
	movb	$83, -3817(%rbp)
	.loc 2 243 17 discriminator 2
	movsbl	-3817(%rbp), %eax
	leaq	-2960(%rbx), %rdx
	leaq	-2976(%rbx), %rcx
	movq	%rcx, %rsi
	movl	%eax, %edi
	call	_Z12getDirectioncRiS_@PLT
	.loc 2 244 11 discriminator 2
	movb	$68, -3817(%rbp)
	.loc 2 245 17 discriminator 2
	movsbl	-3817(%rbp), %eax
	leaq	-2960(%rbx), %rdx
	leaq	-2976(%rbx), %rcx
	movq	%rcx, %rsi
	movl	%eax, %edi
	call	_Z12getDirectioncRiS_@PLT
	.loc 2 246 11 discriminator 2
	movb	$69, -3817(%rbp)
	.loc 2 247 17 discriminator 2
	movsbl	-3817(%rbp), %eax
	leaq	-2960(%rbx), %rdx
	leaq	-2976(%rbx), %rcx
	movq	%rcx, %rsi
	movl	%eax, %edi
	call	_Z12getDirectioncRiS_@PLT
	.loc 2 248 11 discriminator 2
	movb	$81, -3817(%rbp)
	.loc 2 249 17 discriminator 2
	movsbl	-3817(%rbp), %eax
	leaq	-2960(%rbx), %rdx
	leaq	-2976(%rbx), %rcx
	movq	%rcx, %rsi
	movl	%eax, %edi
	call	_Z12getDirectioncRiS_@PLT
	.loc 2 251 11 discriminator 2
	leaq	_ZSt4cout(%rip), %rax
	movq	%rax, %rdx
	shrq	$3, %rdx
	addq	$2147450880, %rdx
	movzbl	(%rdx), %edx
	testb	%dl, %dl
	je	.L312
	.loc 2 251 11 is_stmt 0
	movq	%rax, %rdi
	call	__asan_report_load8@PLT
.L312:
	movq	_ZSt4cout(%rip), %rax
	movq	%rax, %rdx
	movabsq	$-8638671864419, %rax
	xorq	%rdx, %rax
	movq	%rax, %rcx
	movabsq	$-7070675565921424023, %rax
	imulq	%rcx, %rax
	movq	%rax, %rcx
	salq	$47, %rcx
	xorq	%rdx, %rax
	xorq	%rax, %rcx
	movq	%rcx, %rdx
	movabsq	$-7070675565921424023, %rax
	imulq	%rdx, %rax
	movq	%rax, %rdx
	salq	$47, %rdx
	xorq	%rax, %rdx
	movabsq	$-7070675565921424023, %rax
	imulq	%rdx, %rax
	movq	%rax, %rdx
	andl	$127, %edx
	leaq	0(,%rdx,8), %rcx
	leaq	__ubsan_vptr_type_cache(%rip), %rdx
	movq	(%rcx,%rdx), %rdx
	cmpq	%rax, %rdx
	je	.L313
	movq	%rax, %rdx
	leaq	_ZSt4cout(%rip), %rsi
	leaq	.Lubsan_data463(%rip), %rdi
	call	__ubsan_handle_dynamic_type_cache_miss@PLT
.L313:
	movq	_ZSt4endlIcSt11char_traitsIcEERSt13basic_ostreamIT_T0_ES6_@GOTPCREL(%rip), %rax
	movq	%rax, %rsi
	leaq	_ZSt4cout(%rip), %rdi
	call	_ZNSolsEPFRSoS_E@PLT
	movq	%rax, %r14
	.loc 2 251 17 is_stmt 1
	movq	%r14, %rax
	testq	%r14, %r14
	je	.L314
	.loc 2 251 17 is_stmt 0 discriminator 1
	movq	%rax, %rdx
	andl	$7, %edx
	testq	%rdx, %rdx
	je	.L315
.L314:
	.loc 2 251 17
	movq	%rax, %rsi
	leaq	.Lubsan_data464(%rip), %rdi
	call	__ubsan_handle_type_mismatch_v1@PLT
.L315:
	.loc 2 251 17 discriminator 1
	leaq	.LC41(%rip), %rsi
	movq	%r14, %rdi
	call	_ZStlsISt11char_traitsIcEERSt13basic_ostreamIcT_ES5_PKc@PLT
	movq	%rax, %r14
	.loc 2 251 56 is_stmt 1 discriminator 1
	movq	%r14, %rax
	testq	%r14, %r14
	je	.L316
	.loc 2 251 56 is_stmt 0 discriminator 2
	movq	%rax, %rdx
	andl	$7, %edx
	testq	%rdx, %rdx
	je	.L317
.L316:
	.loc 2 251 56
	movq	%rax, %rsi
	leaq	.Lubsan_data465(%rip), %rdi
	call	__ubsan_handle_type_mismatch_v1@PLT
.L317:
	.loc 2 251 56 discriminator 2
	movq	%r14, %rax
	testq	%r14, %r14
	je	.L318
	movq	%rax, %rdx
	andl	$7, %edx
	testq	%rdx, %rdx
	je	.L319
.L318:
	.loc 2 251 56
	movq	%rax, %rsi
	leaq	.Lubsan_data466(%rip), %rdi
	call	__ubsan_handle_type_mismatch_v1@PLT
.L319:
	.loc 2 251 56 discriminator 2
	movq	%r14, %rax
	movq	%rax, %rdx
	shrq	$3, %rdx
	addq	$2147450880, %rdx
	movzbl	(%rdx), %edx
	testb	%dl, %dl
	je	.L320
	.loc 2 251 56
	movq	%rax, %rdi
	call	__asan_report_load8@PLT
.L320:
	.loc 2 251 56 discriminator 2
	movq	(%r14), %rax
	movq	%rax, %rdx
	movabsq	$-8638671864419, %rax
	xorq	%rdx, %rax
	movq	%rax, %rcx
	movabsq	$-7070675565921424023, %rax
	imulq	%rcx, %rax
	movq	%rax, %rcx
	salq	$47, %rcx
	xorq	%rdx, %rax
	xorq	%rax, %rcx
	movq	%rcx, %rdx
	movabsq	$-7070675565921424023, %rax
	imulq	%rdx, %rax
	movq	%rax, %rdx
	salq	$47, %rdx
	xorq	%rax, %rdx
	movabsq	$-7070675565921424023, %rax
	imulq	%rdx, %rax
	movq	%rax, %rdx
	andl	$127, %edx
	leaq	0(,%rdx,8), %rcx
	leaq	__ubsan_vptr_type_cache(%rip), %rdx
	movq	(%rcx,%rdx), %rdx
	cmpq	%rax, %rdx
	je	.L321
	.loc 2 251 56
	movq	%rax, %rdx
	movq	%r14, %rsi
	leaq	.Lubsan_data467(%rip), %rdi
	call	__ubsan_handle_dynamic_type_cache_miss@PLT
.L321:
	.loc 2 251 56 discriminator 2
	movq	_ZSt4endlIcSt11char_traitsIcEERSt13basic_ostreamIT_T0_ES6_@GOTPCREL(%rip), %rax
	movq	%rax, %rsi
	movq	%r14, %rdi
	call	_ZNSolsEPFRSoS_E@PLT
	.loc 2 252 11 is_stmt 1 discriminator 2
	movb	$112, -3817(%rbp)
	.loc 2 253 17 discriminator 2
	movsbl	-3817(%rbp), %eax
	leaq	-2960(%rbx), %rdx
	leaq	-2976(%rbx), %rcx
	movq	%rcx, %rsi
	movl	%eax, %edi
	call	_Z12getDirectioncRiS_@PLT
	.loc 2 254 11 discriminator 2
	movb	$80, -3817(%rbp)
	.loc 2 255 17 discriminator 2
	movsbl	-3817(%rbp), %eax
	leaq	-2960(%rbx), %rdx
	leaq	-2976(%rbx), %rcx
	movq	%rcx, %rsi
	movl	%eax, %edi
	call	_Z12getDirectioncRiS_@PLT
	.loc 2 256 11 discriminator 2
	movb	$0, -3817(%rbp)
	.loc 2 257 17 discriminator 2
	movsbl	-3817(%rbp), %eax
	leaq	-2960(%rbx), %rdx
	leaq	-2976(%rbx), %rcx
	movq	%rcx, %rsi
	movl	%eax, %edi
	call	_Z12getDirectioncRiS_@PLT
	.loc 2 258 11 discriminator 2
	movb	$45, -3817(%rbp)
	.loc 2 259 17 discriminator 2
	movsbl	-3817(%rbp), %eax
	leaq	-2960(%rbx), %rdx
	leaq	-2976(%rbx), %rcx
	movq	%rcx, %rsi
	movl	%eax, %edi
	call	_Z12getDirectioncRiS_@PLT
	.loc 2 302 11 discriminator 2
	leaq	_ZSt4cout(%rip), %rax
	movq	%rax, %rdx
	shrq	$3, %rdx
	addq	$2147450880, %rdx
	movzbl	(%rdx), %edx
	testb	%dl, %dl
	je	.L322
	.loc 2 302 11 is_stmt 0
	movq	%rax, %rdi
	call	__asan_report_load8@PLT
.L322:
	movq	_ZSt4cout(%rip), %rax
	movq	%rax, %rdx
	movabsq	$-8638671864419, %rax
	xorq	%rdx, %rax
	movq	%rax, %rcx
	movabsq	$-7070675565921424023, %rax
	imulq	%rcx, %rax
	movq	%rax, %rcx
	salq	$47, %rcx
	xorq	%rdx, %rax
	xorq	%rax, %rcx
	movq	%rcx, %rdx
	movabsq	$-7070675565921424023, %rax
	imulq	%rdx, %rax
	movq	%rax, %rdx
	salq	$47, %rdx
	xorq	%rax, %rdx
	movabsq	$-7070675565921424023, %rax
	imulq	%rdx, %rax
	movq	%rax, %rdx
	andl	$127, %edx
	leaq	0(,%rdx,8), %rcx
	leaq	__ubsan_vptr_type_cache(%rip), %rdx
	movq	(%rcx,%rdx), %rdx
	cmpq	%rax, %rdx
	je	.L323
	movq	%rax, %rdx
	leaq	_ZSt4cout(%rip), %rsi
	leaq	.Lubsan_data468(%rip), %rdi
	call	__ubsan_handle_dynamic_type_cache_miss@PLT
.L323:
	movq	_ZSt4endlIcSt11char_traitsIcEERSt13basic_ostreamIT_T0_ES6_@GOTPCREL(%rip), %rax
	movq	%rax, %rsi
	leaq	_ZSt4cout(%rip), %rdi
	call	_ZNSolsEPFRSoS_E@PLT
	movq	%rax, %r14
	.loc 2 302 17 is_stmt 1
	movq	%r14, %rax
	testq	%r14, %r14
	je	.L324
	.loc 2 302 17 is_stmt 0 discriminator 1
	movq	%rax, %rdx
	andl	$7, %edx
	testq	%rdx, %rdx
	je	.L325
.L324:
	.loc 2 302 17
	movq	%rax, %rsi
	leaq	.Lubsan_data469(%rip), %rdi
	call	__ubsan_handle_type_mismatch_v1@PLT
.L325:
	.loc 2 302 17 discriminator 1
	leaq	.LC42(%rip), %rsi
	movq	%r14, %rdi
	call	_ZStlsISt11char_traitsIcEERSt13basic_ostreamIcT_ES5_PKc@PLT
	movq	%rax, %r14
	.loc 2 302 44 is_stmt 1 discriminator 1
	movq	%r14, %rax
	testq	%r14, %r14
	je	.L326
	.loc 2 302 44 is_stmt 0 discriminator 2
	movq	%rax, %rdx
	andl	$7, %edx
	testq	%rdx, %rdx
	je	.L327
.L326:
	.loc 2 302 44
	movq	%rax, %rsi
	leaq	.Lubsan_data470(%rip), %rdi
	call	__ubsan_handle_type_mismatch_v1@PLT
.L327:
	.loc 2 302 44 discriminator 2
	movq	%r14, %rax
	testq	%r14, %r14
	je	.L328
	movq	%rax, %rdx
	andl	$7, %edx
	testq	%rdx, %rdx
	je	.L329
.L328:
	.loc 2 302 44
	movq	%rax, %rsi
	leaq	.Lubsan_data471(%rip), %rdi
	call	__ubsan_handle_type_mismatch_v1@PLT
.L329:
	.loc 2 302 44 discriminator 2
	movq	%r14, %rax
	movq	%rax, %rdx
	shrq	$3, %rdx
	addq	$2147450880, %rdx
	movzbl	(%rdx), %edx
	testb	%dl, %dl
	je	.L330
	.loc 2 302 44
	movq	%rax, %rdi
	call	__asan_report_load8@PLT
.L330:
	.loc 2 302 44 discriminator 2
	movq	(%r14), %rax
	movq	%rax, %rdx
	movabsq	$-8638671864419, %rax
	xorq	%rdx, %rax
	movq	%rax, %rcx
	movabsq	$-7070675565921424023, %rax
	imulq	%rcx, %rax
	movq	%rax, %rcx
	salq	$47, %rcx
	xorq	%rdx, %rax
	xorq	%rax, %rcx
	movq	%rcx, %rdx
	movabsq	$-7070675565921424023, %rax
	imulq	%rdx, %rax
	movq	%rax, %rdx
	salq	$47, %rdx
	xorq	%rax, %rdx
	movabsq	$-7070675565921424023, %rax
	imulq	%rdx, %rax
	movq	%rax, %rdx
	andl	$127, %edx
	leaq	0(,%rdx,8), %rcx
	leaq	__ubsan_vptr_type_cache(%rip), %rdx
	movq	(%rcx,%rdx), %rdx
	cmpq	%rax, %rdx
	je	.L331
	.loc 2 302 44
	movq	%rax, %rdx
	movq	%r14, %rsi
	leaq	.Lubsan_data472(%rip), %rdi
	call	__ubsan_handle_dynamic_type_cache_miss@PLT
.L331:
	.loc 2 302 44 discriminator 2
	movq	_ZSt4endlIcSt11char_traitsIcEERSt13basic_ostreamIT_T0_ES6_@GOTPCREL(%rip), %rax
	movq	%rax, %rsi
	movq	%r14, %rdi
	call	_ZNSolsEPFRSoS_E@PLT
	movq	%rax, %r14
	.loc 2 302 50 is_stmt 1 discriminator 2
	movq	%r14, %rax
	testq	%r14, %r14
	je	.L332
	.loc 2 302 50 is_stmt 0 discriminator 3
	movq	%rax, %rdx
	andl	$7, %edx
	testq	%rdx, %rdx
	je	.L333
.L332:
	.loc 2 302 50
	movq	%rax, %rsi
	leaq	.Lubsan_data473(%rip), %rdi
	call	__ubsan_handle_type_mismatch_v1@PLT
.L333:
	.loc 2 302 50 discriminator 3
	movq	%r14, %rax
	testq	%r14, %r14
	je	.L334
	movq	%rax, %rdx
	andl	$7, %edx
	testq	%rdx, %rdx
	je	.L335
.L334:
	.loc 2 302 50
	movq	%rax, %rsi
	leaq	.Lubsan_data474(%rip), %rdi
	call	__ubsan_handle_type_mismatch_v1@PLT
.L335:
	.loc 2 302 50 discriminator 3
	movq	%r14, %rax
	movq	%rax, %rdx
	shrq	$3, %rdx
	addq	$2147450880, %rdx
	movzbl	(%rdx), %edx
	testb	%dl, %dl
	je	.L336
	.loc 2 302 50
	movq	%rax, %rdi
	call	__asan_report_load8@PLT
.L336:
	.loc 2 302 50 discriminator 3
	movq	(%r14), %rax
	movq	%rax, %rdx
	movabsq	$-8638671864419, %rax
	xorq	%rdx, %rax
	movq	%rax, %rcx
	movabsq	$-7070675565921424023, %rax
	imulq	%rcx, %rax
	movq	%rax, %rcx
	salq	$47, %rcx
	xorq	%rdx, %rax
	xorq	%rax, %rcx
	movq	%rcx, %rdx
	movabsq	$-7070675565921424023, %rax
	imulq	%rdx, %rax
	movq	%rax, %rdx
	salq	$47, %rdx
	xorq	%rax, %rdx
	movabsq	$-7070675565921424023, %rax
	imulq	%rdx, %rax
	movq	%rax, %rdx
	andl	$127, %edx
	leaq	0(,%rdx,8), %rcx
	leaq	__ubsan_vptr_type_cache(%rip), %rdx
	movq	(%rcx,%rdx), %rdx
	cmpq	%rax, %rdx
	je	.L337
	.loc 2 302 50
	movq	%rax, %rdx
	movq	%r14, %rsi
	leaq	.Lubsan_data475(%rip), %rdi
	call	__ubsan_handle_dynamic_type_cache_miss@PLT
.L337:
	.loc 2 302 50 discriminator 3
	movq	_ZSt4endlIcSt11char_traitsIcEERSt13basic_ostreamIT_T0_ES6_@GOTPCREL(%rip), %rax
	movq	%rax, %rsi
	movq	%r14, %rdi
	call	_ZNSolsEPFRSoS_E@PLT
	.loc 2 304 11 is_stmt 1 discriminator 3
	leaq	_ZSt4cout(%rip), %rax
	movq	%rax, %rdx
	shrq	$3, %rdx
	addq	$2147450880, %rdx
	movzbl	(%rdx), %edx
	testb	%dl, %dl
	je	.L338
	.loc 2 304 11 is_stmt 0
	movq	%rax, %rdi
	call	__asan_report_load8@PLT
.L338:
	movq	_ZSt4cout(%rip), %rax
	movq	%rax, %rdx
	movabsq	$-8638671864419, %rax
	xorq	%rdx, %rax
	movq	%rax, %rcx
	movabsq	$-7070675565921424023, %rax
	imulq	%rcx, %rax
	movq	%rax, %rcx
	salq	$47, %rcx
	xorq	%rdx, %rax
	xorq	%rax, %rcx
	movq	%rcx, %rdx
	movabsq	$-7070675565921424023, %rax
	imulq	%rdx, %rax
	movq	%rax, %rdx
	salq	$47, %rdx
	xorq	%rax, %rdx
	movabsq	$-7070675565921424023, %rax
	imulq	%rdx, %rax
	movq	%rax, %rdx
	andl	$127, %edx
	leaq	0(,%rdx,8), %rcx
	leaq	__ubsan_vptr_type_cache(%rip), %rdx
	movq	(%rcx,%rdx), %rdx
	cmpq	%rax, %rdx
	je	.L339
	movq	%rax, %rdx
	leaq	_ZSt4cout(%rip), %rsi
	leaq	.Lubsan_data476(%rip), %rdi
	call	__ubsan_handle_dynamic_type_cache_miss@PLT
.L339:
	movq	_ZSt4endlIcSt11char_traitsIcEERSt13basic_ostreamIT_T0_ES6_@GOTPCREL(%rip), %rax
	movq	%rax, %rsi
	leaq	_ZSt4cout(%rip), %rdi
	call	_ZNSolsEPFRSoS_E@PLT
	movq	%rax, %r14
	.loc 2 304 17 is_stmt 1
	movq	%r14, %rax
	testq	%r14, %r14
	je	.L340
	.loc 2 304 17 is_stmt 0 discriminator 1
	movq	%rax, %rdx
	andl	$7, %edx
	testq	%rdx, %rdx
	je	.L341
.L340:
	.loc 2 304 17
	movq	%rax, %rsi
	leaq	.Lubsan_data477(%rip), %rdi
	call	__ubsan_handle_type_mismatch_v1@PLT
.L341:
	.loc 2 304 17 discriminator 1
	leaq	.LC43(%rip), %rsi
	movq	%r14, %rdi
	call	_ZStlsISt11char_traitsIcEERSt13basic_ostreamIcT_ES5_PKc@PLT
	movq	%rax, %r14
	.loc 2 304 51 is_stmt 1 discriminator 1
	movq	%r14, %rax
	testq	%r14, %r14
	je	.L342
	.loc 2 304 51 is_stmt 0 discriminator 2
	movq	%rax, %rdx
	andl	$7, %edx
	testq	%rdx, %rdx
	je	.L343
.L342:
	.loc 2 304 51
	movq	%rax, %rsi
	leaq	.Lubsan_data478(%rip), %rdi
	call	__ubsan_handle_type_mismatch_v1@PLT
.L343:
	.loc 2 304 51 discriminator 2
	movq	%r14, %rax
	testq	%r14, %r14
	je	.L344
	movq	%rax, %rdx
	andl	$7, %edx
	testq	%rdx, %rdx
	je	.L345
.L344:
	.loc 2 304 51
	movq	%rax, %rsi
	leaq	.Lubsan_data479(%rip), %rdi
	call	__ubsan_handle_type_mismatch_v1@PLT
.L345:
	.loc 2 304 51 discriminator 2
	movq	%r14, %rax
	movq	%rax, %rdx
	shrq	$3, %rdx
	addq	$2147450880, %rdx
	movzbl	(%rdx), %edx
	testb	%dl, %dl
	je	.L346
	.loc 2 304 51
	movq	%rax, %rdi
	call	__asan_report_load8@PLT
.L346:
	.loc 2 304 51 discriminator 2
	movq	(%r14), %rax
	movq	%rax, %rdx
	movabsq	$-8638671864419, %rax
	xorq	%rdx, %rax
	movq	%rax, %rcx
	movabsq	$-7070675565921424023, %rax
	imulq	%rcx, %rax
	movq	%rax, %rcx
	salq	$47, %rcx
	xorq	%rdx, %rax
	xorq	%rax, %rcx
	movq	%rcx, %rdx
	movabsq	$-7070675565921424023, %rax
	imulq	%rdx, %rax
	movq	%rax, %rdx
	salq	$47, %rdx
	xorq	%rax, %rdx
	movabsq	$-7070675565921424023, %rax
	imulq	%rdx, %rax
	movq	%rax, %rdx
	andl	$127, %edx
	leaq	0(,%rdx,8), %rcx
	leaq	__ubsan_vptr_type_cache(%rip), %rdx
	movq	(%rcx,%rdx), %rdx
	cmpq	%rax, %rdx
	je	.L347
	.loc 2 304 51
	movq	%rax, %rdx
	movq	%r14, %rsi
	leaq	.Lubsan_data480(%rip), %rdi
	call	__ubsan_handle_dynamic_type_cache_miss@PLT
.L347:
	.loc 2 304 51 discriminator 2
	movq	_ZSt4endlIcSt11char_traitsIcEERSt13basic_ostreamIT_T0_ES6_@GOTPCREL(%rip), %rax
	movq	%rax, %rsi
	movq	%r14, %rdi
	call	_ZNSolsEPFRSoS_E@PLT
.LEHE51:
	.loc 2 305 12 is_stmt 1 discriminator 2
	leaq	-2944(%rbx), %rax
	shrq	$3, %rax
	addq	$2147450880, %rax
	movb	$0, (%rax)
	.loc 2 305 27 discriminator 2
	leaq	-1760(%rbx), %rax
	shrq	$3, %rax
	addq	$2147450880, %rax
	movl	$0, (%rax)
	leaq	-3440(%rbx), %rax
	shrq	$3, %rax
	addq	$2147450880, %rax
	movb	$1, (%rax)
	leaq	-3440(%rbx), %rax
	movq	%rax, %rdi
	call	_ZNSaIcEC1Ev@PLT
	leaq	-3440(%rbx), %rdx
	leaq	-1760(%rbx), %rax
	leaq	.LC5(%rip), %rsi
	movq	%rax, %rdi
.LEHB52:
	call	_ZNSt7__cxx1112basic_stringIcSt11char_traitsIcESaIcEEC1IS3_EEPKcRKS3_
.LEHE52:
	leaq	-1760(%rbx), %r14
	movq	%r14, %rax
	testq	%r14, %r14
	je	.L348
	movq	%rax, %rdx
	andl	$7, %edx
	testq	%rdx, %rdx
	je	.L349
.L348:
	.loc 2 305 27 is_stmt 0
	movq	%rax, %rsi
	leaq	.Lubsan_data481(%rip), %rdi
	call	__ubsan_handle_type_mismatch_v1@PLT
.L349:
	.loc 2 305 27 discriminator 2
	leaq	-2880(%rbx), %rcx
	leaq	-2992(%rbx), %rdx
	leaq	-3008(%rbx), %rax
	movq	%rax, %rsi
	movq	%r14, %rdi
.LEHB53:
	call	_Z9loadLevelRKNSt7__cxx1112basic_stringIcSt11char_traitsIcESaIcEEERiS7_R6Player@PLT
.LEHE53:
	.loc 2 305 65 is_stmt 1 discriminator 2
	leaq	-2944(%rbx), %rdx
	movq	%rdx, %rcx
	shrq	$3, %rcx
	addq	$2147450880, %rcx
	movzbl	(%rcx), %ecx
	testb	%cl, %cl
	je	.L350
	.loc 2 305 65 is_stmt 0
	movq	%rdx, %rdi
	call	__asan_report_store8@PLT
.L350:
	.loc 2 305 65 discriminator 4
	movq	%rax, -2944(%rbx)
	.loc 2 305 27 is_stmt 1 discriminator 4
	leaq	-1760(%rbx), %rax
	movq	%rax, %rdi
	call	_ZNSt7__cxx1112basic_stringIcSt11char_traitsIcESaIcEED1Ev@PLT
	leaq	-1760(%rbx), %rax
	shrq	$3, %rax
	addq	$2147450880, %rax
	movl	$-117901064, (%rax)
	leaq	-3440(%rbx), %rax
	movq	%rax, %rdi
	call	_ZNSaIcED1Ev@PLT
	leaq	-3440(%rbx), %rax
	shrq	$3, %rax
	addq	$2147450880, %rax
	movb	$-8, (%rax)
	.loc 2 306 14 discriminator 4
	leaq	-3008(%rbx), %rdx
	leaq	-2944(%rbx), %rax
	movq	%rdx, %rsi
	movq	%rax, %rdi
.LEHB54:
	call	_Z9deleteMapRPPcRi@PLT
	.loc 2 307 11 discriminator 4
	leaq	_ZSt4cout(%rip), %rax
	movq	%rax, %rdx
	shrq	$3, %rdx
	addq	$2147450880, %rdx
	movzbl	(%rdx), %edx
	testb	%dl, %dl
	je	.L351
	.loc 2 307 11 is_stmt 0
	movq	%rax, %rdi
	call	__asan_report_load8@PLT
.L351:
	movq	_ZSt4cout(%rip), %rax
	movq	%rax, %rdx
	movabsq	$-8638671864419, %rax
	xorq	%rdx, %rax
	movq	%rax, %rcx
	movabsq	$-7070675565921424023, %rax
	imulq	%rcx, %rax
	movq	%rax, %rcx
	salq	$47, %rcx
	xorq	%rdx, %rax
	xorq	%rax, %rcx
	movq	%rcx, %rdx
	movabsq	$-7070675565921424023, %rax
	imulq	%rdx, %rax
	movq	%rax, %rdx
	salq	$47, %rdx
	xorq	%rax, %rdx
	movabsq	$-7070675565921424023, %rax
	imulq	%rdx, %rax
	movq	%rax, %rdx
	andl	$127, %edx
	leaq	0(,%rdx,8), %rcx
	leaq	__ubsan_vptr_type_cache(%rip), %rdx
	movq	(%rcx,%rdx), %rdx
	cmpq	%rax, %rdx
	je	.L352
	movq	%rax, %rdx
	leaq	_ZSt4cout(%rip), %rsi
	leaq	.Lubsan_data482(%rip), %rdi
	call	__ubsan_handle_dynamic_type_cache_miss@PLT
.L352:
	movq	_ZSt4endlIcSt11char_traitsIcEERSt13basic_ostreamIT_T0_ES6_@GOTPCREL(%rip), %rax
	movq	%rax, %rsi
	leaq	_ZSt4cout(%rip), %rdi
	call	_ZNSolsEPFRSoS_E@PLT
	movq	%rax, %r14
	.loc 2 307 17 is_stmt 1
	movq	%r14, %rax
	testq	%r14, %r14
	je	.L353
	.loc 2 307 17 is_stmt 0 discriminator 1
	movq	%rax, %rdx
	andl	$7, %edx
	testq	%rdx, %rdx
	je	.L354
.L353:
	.loc 2 307 17
	movq	%rax, %rsi
	leaq	.Lubsan_data483(%rip), %rdi
	call	__ubsan_handle_type_mismatch_v1@PLT
.L354:
	.loc 2 307 17 discriminator 1
	leaq	.LC44(%rip), %rsi
	movq	%r14, %rdi
	call	_ZStlsISt11char_traitsIcEERSt13basic_ostreamIcT_ES5_PKc@PLT
	movq	%rax, %r14
	.loc 2 307 52 is_stmt 1 discriminator 1
	movq	%r14, %rax
	testq	%r14, %r14
	je	.L355
	.loc 2 307 52 is_stmt 0 discriminator 2
	movq	%rax, %rdx
	andl	$7, %edx
	testq	%rdx, %rdx
	je	.L356
.L355:
	.loc 2 307 52
	movq	%rax, %rsi
	leaq	.Lubsan_data484(%rip), %rdi
	call	__ubsan_handle_type_mismatch_v1@PLT
.L356:
	.loc 2 307 52 discriminator 2
	movq	%r14, %rax
	testq	%r14, %r14
	je	.L357
	movq	%rax, %rdx
	andl	$7, %edx
	testq	%rdx, %rdx
	je	.L358
.L357:
	.loc 2 307 52
	movq	%rax, %rsi
	leaq	.Lubsan_data485(%rip), %rdi
	call	__ubsan_handle_type_mismatch_v1@PLT
.L358:
	.loc 2 307 52 discriminator 2
	movq	%r14, %rax
	movq	%rax, %rdx
	shrq	$3, %rdx
	addq	$2147450880, %rdx
	movzbl	(%rdx), %edx
	testb	%dl, %dl
	je	.L359
	.loc 2 307 52
	movq	%rax, %rdi
	call	__asan_report_load8@PLT
.L359:
	.loc 2 307 52 discriminator 2
	movq	(%r14), %rax
	movq	%rax, %rdx
	movabsq	$-8638671864419, %rax
	xorq	%rdx, %rax
	movq	%rax, %rcx
	movabsq	$-7070675565921424023, %rax
	imulq	%rcx, %rax
	movq	%rax, %rcx
	salq	$47, %rcx
	xorq	%rdx, %rax
	xorq	%rax, %rcx
	movq	%rcx, %rdx
	movabsq	$-7070675565921424023, %rax
	imulq	%rdx, %rax
	movq	%rax, %rdx
	salq	$47, %rdx
	xorq	%rax, %rdx
	movabsq	$-7070675565921424023, %rax
	imulq	%rdx, %rax
	movq	%rax, %rdx
	andl	$127, %edx
	leaq	0(,%rdx,8), %rcx
	leaq	__ubsan_vptr_type_cache(%rip), %rdx
	movq	(%rcx,%rdx), %rdx
	cmpq	%rax, %rdx
	je	.L360
	.loc 2 307 52
	movq	%rax, %rdx
	movq	%r14, %rsi
	leaq	.Lubsan_data486(%rip), %rdi
	call	__ubsan_handle_dynamic_type_cache_miss@PLT
.L360:
	.loc 2 307 52 discriminator 2
	movq	_ZSt4endlIcSt11char_traitsIcEERSt13basic_ostreamIT_T0_ES6_@GOTPCREL(%rip), %rax
	movq	%rax, %rsi
	movq	%r14, %rdi
	call	_ZNSolsEPFRSoS_E@PLT
.LEHE54:
	.loc 2 308 20 is_stmt 1 discriminator 2
	leaq	-1696(%rbx), %rax
	shrq	$3, %rax
	addq	$2147450880, %rax
	movl	$0, (%rax)
	leaq	-3424(%rbx), %rax
	shrq	$3, %rax
	addq	$2147450880, %rax
	movb	$1, (%rax)
	leaq	-3424(%rbx), %rax
	movq	%rax, %rdi
	call	_ZNSaIcEC1Ev@PLT
	leaq	-3424(%rbx), %rdx
	leaq	-1696(%rbx), %rax
	leaq	.LC45(%rip), %rsi
	movq	%rax, %rdi
.LEHB55:
	call	_ZNSt7__cxx1112basic_stringIcSt11char_traitsIcESaIcEEC1IS3_EEPKcRKS3_
.LEHE55:
	leaq	-1696(%rbx), %r14
	movq	%r14, %rax
	testq	%r14, %r14
	je	.L361
	movq	%rax, %rdx
	andl	$7, %edx
	testq	%rdx, %rdx
	je	.L362
.L361:
	.loc 2 308 20 is_stmt 0
	movq	%rax, %rsi
	leaq	.Lubsan_data487(%rip), %rdi
	call	__ubsan_handle_type_mismatch_v1@PLT
.L362:
	.loc 2 308 20 discriminator 2
	leaq	-2880(%rbx), %rcx
	leaq	-2992(%rbx), %rdx
	leaq	-3008(%rbx), %rax
	movq	%rax, %rsi
	movq	%r14, %rdi
.LEHB56:
	call	_Z9loadLevelRKNSt7__cxx1112basic_stringIcSt11char_traitsIcESaIcEEERiS7_R6Player@PLT
.LEHE56:
	.loc 2 308 9 is_stmt 1 discriminator 2
	leaq	-2944(%rbx), %rdx
	movq	%rdx, %rcx
	shrq	$3, %rcx
	addq	$2147450880, %rcx
	movzbl	(%rcx), %ecx
	testb	%cl, %cl
	je	.L363
	.loc 2 308 9 is_stmt 0
	movq	%rdx, %rdi
	call	__asan_report_store8@PLT
.L363:
	.loc 2 308 9 discriminator 4
	movq	%rax, -2944(%rbx)
	.loc 2 308 20 is_stmt 1 discriminator 4
	leaq	-1696(%rbx), %rax
	movq	%rax, %rdi
	call	_ZNSt7__cxx1112basic_stringIcSt11char_traitsIcESaIcEED1Ev@PLT
	leaq	-1696(%rbx), %rax
	shrq	$3, %rax
	addq	$2147450880, %rax
	movl	$-117901064, (%rax)
	leaq	-3424(%rbx), %rax
	movq	%rax, %rdi
	call	_ZNSaIcED1Ev@PLT
	leaq	-3424(%rbx), %rax
	shrq	$3, %rax
	addq	$2147450880, %rax
	movb	$-8, (%rax)
	.loc 2 309 14 discriminator 4
	leaq	-3008(%rbx), %rdx
	leaq	-2944(%rbx), %rax
	movq	%rdx, %rsi
	movq	%rax, %rdi
.LEHB57:
	call	_Z9deleteMapRPPcRi@PLT
	.loc 2 312 11 discriminator 4
	leaq	_ZSt4cout(%rip), %rax
	movq	%rax, %rdx
	shrq	$3, %rdx
	addq	$2147450880, %rdx
	movzbl	(%rdx), %edx
	testb	%dl, %dl
	je	.L364
	.loc 2 312 11 is_stmt 0
	movq	%rax, %rdi
	call	__asan_report_load8@PLT
.L364:
	movq	_ZSt4cout(%rip), %rax
	movq	%rax, %rdx
	movabsq	$-8638671864419, %rax
	xorq	%rdx, %rax
	movq	%rax, %rcx
	movabsq	$-7070675565921424023, %rax
	imulq	%rcx, %rax
	movq	%rax, %rcx
	salq	$47, %rcx
	xorq	%rdx, %rax
	xorq	%rax, %rcx
	movq	%rcx, %rdx
	movabsq	$-7070675565921424023, %rax
	imulq	%rdx, %rax
	movq	%rax, %rdx
	salq	$47, %rdx
	xorq	%rax, %rdx
	movabsq	$-7070675565921424023, %rax
	imulq	%rdx, %rax
	movq	%rax, %rdx
	andl	$127, %edx
	leaq	0(,%rdx,8), %rcx
	leaq	__ubsan_vptr_type_cache(%rip), %rdx
	movq	(%rcx,%rdx), %rdx
	cmpq	%rax, %rdx
	je	.L365
	movq	%rax, %rdx
	leaq	_ZSt4cout(%rip), %rsi
	leaq	.Lubsan_data488(%rip), %rdi
	call	__ubsan_handle_dynamic_type_cache_miss@PLT
.L365:
	movq	_ZSt4endlIcSt11char_traitsIcEERSt13basic_ostreamIT_T0_ES6_@GOTPCREL(%rip), %rax
	movq	%rax, %rsi
	leaq	_ZSt4cout(%rip), %rdi
	call	_ZNSolsEPFRSoS_E@PLT
	movq	%rax, %r14
	.loc 2 312 17 is_stmt 1
	movq	%r14, %rax
	testq	%r14, %r14
	je	.L366
	.loc 2 312 17 is_stmt 0 discriminator 1
	movq	%rax, %rdx
	andl	$7, %edx
	testq	%rdx, %rdx
	je	.L367
.L366:
	.loc 2 312 17
	movq	%rax, %rsi
	leaq	.Lubsan_data489(%rip), %rdi
	call	__ubsan_handle_type_mismatch_v1@PLT
.L367:
	.loc 2 312 17 discriminator 1
	leaq	.LC46(%rip), %rsi
	movq	%r14, %rdi
	call	_ZStlsISt11char_traitsIcEERSt13basic_ostreamIcT_ES5_PKc@PLT
	movq	%rax, %r14
	.loc 2 312 44 is_stmt 1 discriminator 1
	movq	%r14, %rax
	testq	%r14, %r14
	je	.L368
	.loc 2 312 44 is_stmt 0 discriminator 2
	movq	%rax, %rdx
	andl	$7, %edx
	testq	%rdx, %rdx
	je	.L369
.L368:
	.loc 2 312 44
	movq	%rax, %rsi
	leaq	.Lubsan_data490(%rip), %rdi
	call	__ubsan_handle_type_mismatch_v1@PLT
.L369:
	.loc 2 312 44 discriminator 2
	movq	%r14, %rax
	testq	%r14, %r14
	je	.L370
	movq	%rax, %rdx
	andl	$7, %edx
	testq	%rdx, %rdx
	je	.L371
.L370:
	.loc 2 312 44
	movq	%rax, %rsi
	leaq	.Lubsan_data491(%rip), %rdi
	call	__ubsan_handle_type_mismatch_v1@PLT
.L371:
	.loc 2 312 44 discriminator 2
	movq	%r14, %rax
	movq	%rax, %rdx
	shrq	$3, %rdx
	addq	$2147450880, %rdx
	movzbl	(%rdx), %edx
	testb	%dl, %dl
	je	.L372
	.loc 2 312 44
	movq	%rax, %rdi
	call	__asan_report_load8@PLT
.L372:
	.loc 2 312 44 discriminator 2
	movq	(%r14), %rax
	movq	%rax, %rdx
	movabsq	$-8638671864419, %rax
	xorq	%rdx, %rax
	movq	%rax, %rcx
	movabsq	$-7070675565921424023, %rax
	imulq	%rcx, %rax
	movq	%rax, %rcx
	salq	$47, %rcx
	xorq	%rdx, %rax
	xorq	%rax, %rcx
	movq	%rcx, %rdx
	movabsq	$-7070675565921424023, %rax
	imulq	%rdx, %rax
	movq	%rax, %rdx
	salq	$47, %rdx
	xorq	%rax, %rdx
	movabsq	$-7070675565921424023, %rax
	imulq	%rdx, %rax
	movq	%rax, %rdx
	andl	$127, %edx
	leaq	0(,%rdx,8), %rcx
	leaq	__ubsan_vptr_type_cache(%rip), %rdx
	movq	(%rcx,%rdx), %rdx
	cmpq	%rax, %rdx
	je	.L373
	.loc 2 312 44
	movq	%rax, %rdx
	movq	%r14, %rsi
	leaq	.Lubsan_data492(%rip), %rdi
	call	__ubsan_handle_dynamic_type_cache_miss@PLT
.L373:
	.loc 2 312 44 discriminator 2
	movq	_ZSt4endlIcSt11char_traitsIcEERSt13basic_ostreamIT_T0_ES6_@GOTPCREL(%rip), %rax
	movq	%rax, %rsi
	movq	%r14, %rdi
	call	_ZNSolsEPFRSoS_E@PLT
	movq	%rax, %r14
	.loc 2 312 50 is_stmt 1 discriminator 2
	movq	%r14, %rax
	testq	%r14, %r14
	je	.L374
	.loc 2 312 50 is_stmt 0 discriminator 3
	movq	%rax, %rdx
	andl	$7, %edx
	testq	%rdx, %rdx
	je	.L375
.L374:
	.loc 2 312 50
	movq	%rax, %rsi
	leaq	.Lubsan_data493(%rip), %rdi
	call	__ubsan_handle_type_mismatch_v1@PLT
.L375:
	.loc 2 312 50 discriminator 3
	movq	%r14, %rax
	testq	%r14, %r14
	je	.L376
	movq	%rax, %rdx
	andl	$7, %edx
	testq	%rdx, %rdx
	je	.L377
.L376:
	.loc 2 312 50
	movq	%rax, %rsi
	leaq	.Lubsan_data494(%rip), %rdi
	call	__ubsan_handle_type_mismatch_v1@PLT
.L377:
	.loc 2 312 50 discriminator 3
	movq	%r14, %rax
	movq	%rax, %rdx
	shrq	$3, %rdx
	addq	$2147450880, %rdx
	movzbl	(%rdx), %edx
	testb	%dl, %dl
	je	.L378
	.loc 2 312 50
	movq	%rax, %rdi
	call	__asan_report_load8@PLT
.L378:
	.loc 2 312 50 discriminator 3
	movq	(%r14), %rax
	movq	%rax, %rdx
	movabsq	$-8638671864419, %rax
	xorq	%rdx, %rax
	movq	%rax, %rcx
	movabsq	$-7070675565921424023, %rax
	imulq	%rcx, %rax
	movq	%rax, %rcx
	salq	$47, %rcx
	xorq	%rdx, %rax
	xorq	%rax, %rcx
	movq	%rcx, %rdx
	movabsq	$-7070675565921424023, %rax
	imulq	%rdx, %rax
	movq	%rax, %rdx
	salq	$47, %rdx
	xorq	%rax, %rdx
	movabsq	$-7070675565921424023, %rax
	imulq	%rdx, %rax
	movq	%rax, %rdx
	andl	$127, %edx
	leaq	0(,%rdx,8), %rcx
	leaq	__ubsan_vptr_type_cache(%rip), %rdx
	movq	(%rcx,%rdx), %rdx
	cmpq	%rax, %rdx
	je	.L379
	.loc 2 312 50
	movq	%rax, %rdx
	movq	%r14, %rsi
	leaq	.Lubsan_data495(%rip), %rdi
	call	__ubsan_handle_dynamic_type_cache_miss@PLT
.L379:
	.loc 2 312 50 discriminator 3
	movq	_ZSt4endlIcSt11char_traitsIcEERSt13basic_ostreamIT_T0_ES6_@GOTPCREL(%rip), %rax
	movq	%rax, %rsi
	movq	%r14, %rdi
	call	_ZNSolsEPFRSoS_E@PLT
	.loc 2 314 11 is_stmt 1 discriminator 3
	leaq	_ZSt4cout(%rip), %rax
	movq	%rax, %rdx
	shrq	$3, %rdx
	addq	$2147450880, %rdx
	movzbl	(%rdx), %edx
	testb	%dl, %dl
	je	.L380
	.loc 2 314 11 is_stmt 0
	movq	%rax, %rdi
	call	__asan_report_load8@PLT
.L380:
	movq	_ZSt4cout(%rip), %rax
	movq	%rax, %rdx
	movabsq	$-8638671864419, %rax
	xorq	%rdx, %rax
	movq	%rax, %rcx
	movabsq	$-7070675565921424023, %rax
	imulq	%rcx, %rax
	movq	%rax, %rcx
	salq	$47, %rcx
	xorq	%rdx, %rax
	xorq	%rax, %rcx
	movq	%rcx, %rdx
	movabsq	$-7070675565921424023, %rax
	imulq	%rdx, %rax
	movq	%rax, %rdx
	salq	$47, %rdx
	xorq	%rax, %rdx
	movabsq	$-7070675565921424023, %rax
	imulq	%rdx, %rax
	movq	%rax, %rdx
	andl	$127, %edx
	leaq	0(,%rdx,8), %rcx
	leaq	__ubsan_vptr_type_cache(%rip), %rdx
	movq	(%rcx,%rdx), %rdx
	cmpq	%rax, %rdx
	je	.L381
	movq	%rax, %rdx
	leaq	_ZSt4cout(%rip), %rsi
	leaq	.Lubsan_data496(%rip), %rdi
	call	__ubsan_handle_dynamic_type_cache_miss@PLT
.L381:
	movq	_ZSt4endlIcSt11char_traitsIcEERSt13basic_ostreamIT_T0_ES6_@GOTPCREL(%rip), %rax
	movq	%rax, %rsi
	leaq	_ZSt4cout(%rip), %rdi
	call	_ZNSolsEPFRSoS_E@PLT
	movq	%rax, %r14
	.loc 2 314 17 is_stmt 1
	movq	%r14, %rax
	testq	%r14, %r14
	je	.L382
	.loc 2 314 17 is_stmt 0 discriminator 1
	movq	%rax, %rdx
	andl	$7, %edx
	testq	%rdx, %rdx
	je	.L383
.L382:
	.loc 2 314 17
	movq	%rax, %rsi
	leaq	.Lubsan_data497(%rip), %rdi
	call	__ubsan_handle_type_mismatch_v1@PLT
.L383:
	.loc 2 314 17 discriminator 1
	leaq	.LC47(%rip), %rsi
	movq	%r14, %rdi
	call	_ZStlsISt11char_traitsIcEERSt13basic_ostreamIcT_ES5_PKc@PLT
	movq	%rax, %r14
	.loc 2 314 51 is_stmt 1 discriminator 1
	movq	%r14, %rax
	testq	%r14, %r14
	je	.L384
	.loc 2 314 51 is_stmt 0 discriminator 2
	movq	%rax, %rdx
	andl	$7, %edx
	testq	%rdx, %rdx
	je	.L385
.L384:
	.loc 2 314 51
	movq	%rax, %rsi
	leaq	.Lubsan_data498(%rip), %rdi
	call	__ubsan_handle_type_mismatch_v1@PLT
.L385:
	.loc 2 314 51 discriminator 2
	movq	%r14, %rax
	testq	%r14, %r14
	je	.L386
	movq	%rax, %rdx
	andl	$7, %edx
	testq	%rdx, %rdx
	je	.L387
.L386:
	.loc 2 314 51
	movq	%rax, %rsi
	leaq	.Lubsan_data499(%rip), %rdi
	call	__ubsan_handle_type_mismatch_v1@PLT
.L387:
	.loc 2 314 51 discriminator 2
	movq	%r14, %rax
	movq	%rax, %rdx
	shrq	$3, %rdx
	addq	$2147450880, %rdx
	movzbl	(%rdx), %edx
	testb	%dl, %dl
	je	.L388
	.loc 2 314 51
	movq	%rax, %rdi
	call	__asan_report_load8@PLT
.L388:
	.loc 2 314 51 discriminator 2
	movq	(%r14), %rax
	movq	%rax, %rdx
	movabsq	$-8638671864419, %rax
	xorq	%rdx, %rax
	movq	%rax, %rcx
	movabsq	$-7070675565921424023, %rax
	imulq	%rcx, %rax
	movq	%rax, %rcx
	salq	$47, %rcx
	xorq	%rdx, %rax
	xorq	%rax, %rcx
	movq	%rcx, %rdx
	movabsq	$-7070675565921424023, %rax
	imulq	%rdx, %rax
	movq	%rax, %rdx
	salq	$47, %rdx
	xorq	%rax, %rdx
	movabsq	$-7070675565921424023, %rax
	imulq	%rdx, %rax
	movq	%rax, %rdx
	andl	$127, %edx
	leaq	0(,%rdx,8), %rcx
	leaq	__ubsan_vptr_type_cache(%rip), %rdx
	movq	(%rcx,%rdx), %rdx
	cmpq	%rax, %rdx
	je	.L389
	.loc 2 314 51
	movq	%rax, %rdx
	movq	%r14, %rsi
	leaq	.Lubsan_data500(%rip), %rdi
	call	__ubsan_handle_dynamic_type_cache_miss@PLT
.L389:
	.loc 2 314 51 discriminator 2
	movq	_ZSt4endlIcSt11char_traitsIcEERSt13basic_ostreamIT_T0_ES6_@GOTPCREL(%rip), %rax
	movq	%rax, %rsi
	movq	%r14, %rdi
	call	_ZNSolsEPFRSoS_E@PLT
.LEHE57:
	.loc 2 316 30 is_stmt 1 discriminator 2
	leaq	-1632(%rbx), %rax
	shrq	$3, %rax
	addq	$2147450880, %rax
	movl	$0, (%rax)
	leaq	-3408(%rbx), %rax
	shrq	$3, %rax
	addq	$2147450880, %rax
	movb	$1, (%rax)
	leaq	-3408(%rbx), %rax
	movq	%rax, %rdi
	call	_ZNSaIcEC1Ev@PLT
	leaq	-3408(%rbx), %rdx
	leaq	-1632(%rbx), %rax
	leaq	.LC5(%rip), %rsi
	movq	%rax, %rdi
.LEHB58:
	call	_ZNSt7__cxx1112basic_stringIcSt11char_traitsIcESaIcEEC1IS3_EEPKcRKS3_
.LEHE58:
	leaq	-1632(%rbx), %r14
	movq	%r14, %rax
	testq	%r14, %r14
	je	.L390
	movq	%rax, %rdx
	andl	$7, %edx
	testq	%rdx, %rdx
	je	.L391
.L390:
	.loc 2 316 30 is_stmt 0
	movq	%rax, %rsi
	leaq	.Lubsan_data501(%rip), %rdi
	call	__ubsan_handle_type_mismatch_v1@PLT
.L391:
	.loc 2 316 30 discriminator 2
	leaq	-2880(%rbx), %rcx
	leaq	-2992(%rbx), %rdx
	leaq	-3008(%rbx), %rax
	movq	%rax, %rsi
	movq	%r14, %rdi
.LEHB59:
	call	_Z9loadLevelRKNSt7__cxx1112basic_stringIcSt11char_traitsIcESaIcEEERiS7_R6Player@PLT
.LEHE59:
	movq	%rax, -3800(%rbp)
	leaq	-1632(%rbx), %rax
	movq	%rax, %rdi
	call	_ZNSt7__cxx1112basic_stringIcSt11char_traitsIcESaIcEED1Ev@PLT
	leaq	-1632(%rbx), %rax
	shrq	$3, %rax
	addq	$2147450880, %rax
	movl	$-117901064, (%rax)
	leaq	-3408(%rbx), %rax
	movq	%rax, %rdi
	call	_ZNSaIcED1Ev@PLT
	leaq	-3408(%rbx), %rax
	shrq	$3, %rax
	addq	$2147450880, %rax
	movb	$-8, (%rax)
	.loc 2 317 11 is_stmt 1 discriminator 2
	leaq	_ZSt4cout(%rip), %rax
	movq	%rax, %rdx
	shrq	$3, %rdx
	addq	$2147450880, %rdx
	movzbl	(%rdx), %edx
	testb	%dl, %dl
	je	.L392
	.loc 2 317 11 is_stmt 0
	movq	%rax, %rdi
	call	__asan_report_load8@PLT
.L392:
	.loc 2 317 11 discriminator 4
	movq	_ZSt4cout(%rip), %rax
	movq	%rax, %rdx
	movabsq	$-8638671864419, %rax
	xorq	%rdx, %rax
	movq	%rax, %rcx
	movabsq	$-7070675565921424023, %rax
	imulq	%rcx, %rax
	movq	%rax, %rcx
	salq	$47, %rcx
	xorq	%rdx, %rax
	xorq	%rax, %rcx
	movq	%rcx, %rdx
	movabsq	$-7070675565921424023, %rax
	imulq	%rdx, %rax
	movq	%rax, %rdx
	salq	$47, %rdx
	xorq	%rax, %rdx
	movabsq	$-7070675565921424023, %rax
	imulq	%rdx, %rax
	movq	%rax, %rdx
	andl	$127, %edx
	leaq	0(,%rdx,8), %rcx
	leaq	__ubsan_vptr_type_cache(%rip), %rdx
	movq	(%rcx,%rdx), %rdx
	cmpq	%rax, %rdx
	je	.L393
	.loc 2 317 11
	movq	%rax, %rdx
	leaq	_ZSt4cout(%rip), %rsi
	leaq	.Lubsan_data502(%rip), %rdi
	call	__ubsan_handle_dynamic_type_cache_miss@PLT
.L393:
	.loc 2 317 11 discriminator 4
	movq	_ZSt4endlIcSt11char_traitsIcEERSt13basic_ostreamIT_T0_ES6_@GOTPCREL(%rip), %rax
	movq	%rax, %rsi
	leaq	_ZSt4cout(%rip), %rdi
.LEHB60:
	call	_ZNSolsEPFRSoS_E@PLT
	movq	%rax, %r14
	.loc 2 317 17 is_stmt 1 discriminator 4
	movq	%r14, %rax
	testq	%r14, %r14
	je	.L394
	.loc 2 317 17 is_stmt 0 discriminator 1
	movq	%rax, %rdx
	andl	$7, %edx
	testq	%rdx, %rdx
	je	.L395
.L394:
	.loc 2 317 17
	movq	%rax, %rsi
	leaq	.Lubsan_data503(%rip), %rdi
	call	__ubsan_handle_type_mismatch_v1@PLT
.L395:
	.loc 2 317 17 discriminator 1
	leaq	.LC48(%rip), %rsi
	movq	%r14, %rdi
	call	_ZStlsISt11char_traitsIcEERSt13basic_ostreamIcT_ES5_PKc@PLT
	movq	%rax, %r14
	.loc 2 317 36 is_stmt 1 discriminator 1
	movq	%r14, %rax
	testq	%r14, %r14
	je	.L396
	.loc 2 317 36 is_stmt 0 discriminator 2
	movq	%rax, %rdx
	andl	$7, %edx
	testq	%rdx, %rdx
	je	.L397
.L396:
	.loc 2 317 36
	movq	%rax, %rsi
	leaq	.Lubsan_data504(%rip), %rdi
	call	__ubsan_handle_type_mismatch_v1@PLT
.L397:
	.loc 2 317 36 discriminator 2
	movq	%r14, %rax
	testq	%r14, %r14
	je	.L398
	movq	%rax, %rdx
	andl	$7, %edx
	testq	%rdx, %rdx
	je	.L399
.L398:
	.loc 2 317 36
	movq	%rax, %rsi
	leaq	.Lubsan_data505(%rip), %rdi
	call	__ubsan_handle_type_mismatch_v1@PLT
.L399:
	.loc 2 317 36 discriminator 2
	movq	%r14, %rax
	movq	%rax, %rdx
	shrq	$3, %rdx
	addq	$2147450880, %rdx
	movzbl	(%rdx), %edx
	testb	%dl, %dl
	je	.L400
	.loc 2 317 36
	movq	%rax, %rdi
	call	__asan_report_load8@PLT
.L400:
	.loc 2 317 36 discriminator 2
	movq	(%r14), %rax
	movq	%rax, %rdx
	movabsq	$-8638671864419, %rax
	xorq	%rdx, %rax
	movq	%rax, %rcx
	movabsq	$-7070675565921424023, %rax
	imulq	%rcx, %rax
	movq	%rax, %rcx
	salq	$47, %rcx
	xorq	%rdx, %rax
	xorq	%rax, %rcx
	movq	%rcx, %rdx
	movabsq	$-7070675565921424023, %rax
	imulq	%rdx, %rax
	movq	%rax, %rdx
	salq	$47, %rdx
	xorq	%rax, %rdx
	movabsq	$-7070675565921424023, %rax
	imulq	%rdx, %rax
	movq	%rax, %rdx
	andl	$127, %edx
	leaq	0(,%rdx,8), %rcx
	leaq	__ubsan_vptr_type_cache(%rip), %rdx
	movq	(%rcx,%rdx), %rdx
	cmpq	%rax, %rdx
	je	.L401
	.loc 2 317 36
	movq	%rax, %rdx
	movq	%r14, %rsi
	leaq	.Lubsan_data506(%rip), %rdi
	call	__ubsan_handle_dynamic_type_cache_miss@PLT
.L401:
	.loc 2 317 44 is_stmt 1 discriminator 2
	leaq	-3008(%rbx), %rax
	movq	%rax, %rdx
	movq	%rdx, %rax
	shrq	$3, %rax
	addq	$2147450880, %rax
	movzbl	(%rax), %eax
	testb	%al, %al
	setne	%cl
	cmpb	$3, %al
	setle	%al
	andl	%ecx, %eax
	testb	%al, %al
	je	.L402
	.loc 2 317 44 is_stmt 0
	movq	%rdx, %rdi
	call	__asan_report_load4@PLT
.L402:
	.loc 2 317 44 discriminator 2
	movl	-3008(%rbx), %eax
	movl	%eax, %esi
	movq	%r14, %rdi
	call	_ZNSolsEi@PLT
	leaq	.LC49(%rip), %rsi
	movq	%rax, %rdi
	call	_ZStlsISt11char_traitsIcEERSt13basic_ostreamIcT_ES5_PKc@PLT
	movq	%rax, %r14
	.loc 2 317 58 is_stmt 1 discriminator 2
	movq	%r14, %rax
	testq	%r14, %r14
	je	.L403
	.loc 2 317 58 is_stmt 0 discriminator 4
	movq	%rax, %rdx
	andl	$7, %edx
	testq	%rdx, %rdx
	je	.L404
.L403:
	.loc 2 317 58
	movq	%rax, %rsi
	leaq	.Lubsan_data507(%rip), %rdi
	call	__ubsan_handle_type_mismatch_v1@PLT
.L404:
	.loc 2 317 58 discriminator 4
	movq	%r14, %rax
	testq	%r14, %r14
	je	.L405
	movq	%rax, %rdx
	andl	$7, %edx
	testq	%rdx, %rdx
	je	.L406
.L405:
	.loc 2 317 58
	movq	%rax, %rsi
	leaq	.Lubsan_data508(%rip), %rdi
	call	__ubsan_handle_type_mismatch_v1@PLT
.L406:
	.loc 2 317 58 discriminator 4
	movq	%r14, %rax
	movq	%rax, %rdx
	shrq	$3, %rdx
	addq	$2147450880, %rdx
	movzbl	(%rdx), %edx
	testb	%dl, %dl
	je	.L407
	.loc 2 317 58
	movq	%rax, %rdi
	call	__asan_report_load8@PLT
.L407:
	.loc 2 317 58 discriminator 4
	movq	(%r14), %rax
	movq	%rax, %rdx
	movabsq	$-8638671864419, %rax
	xorq	%rdx, %rax
	movq	%rax, %rcx
	movabsq	$-7070675565921424023, %rax
	imulq	%rcx, %rax
	movq	%rax, %rcx
	salq	$47, %rcx
	xorq	%rdx, %rax
	xorq	%rax, %rcx
	movq	%rcx, %rdx
	movabsq	$-7070675565921424023, %rax
	imulq	%rdx, %rax
	movq	%rax, %rdx
	salq	$47, %rdx
	xorq	%rax, %rdx
	movabsq	$-7070675565921424023, %rax
	imulq	%rdx, %rax
	movq	%rax, %rdx
	andl	$127, %edx
	leaq	0(,%rdx,8), %rcx
	leaq	__ubsan_vptr_type_cache(%rip), %rdx
	movq	(%rcx,%rdx), %rdx
	cmpq	%rax, %rdx
	je	.L408
	.loc 2 317 58
	movq	%rax, %rdx
	movq	%r14, %rsi
	leaq	.Lubsan_data509(%rip), %rdi
	call	__ubsan_handle_dynamic_type_cache_miss@PLT
.L408:
	.loc 2 317 58 discriminator 4
	leaq	-2992(%rbx), %rax
	movq	%rax, %rdx
	movq	%rdx, %rax
	shrq	$3, %rax
	addq	$2147450880, %rax
	movzbl	(%rax), %eax
	testb	%al, %al
	setne	%cl
	cmpb	$3, %al
	setle	%al
	andl	%ecx, %eax
	testb	%al, %al
	je	.L409
	.loc 2 317 58
	movq	%rdx, %rdi
	call	__asan_report_load4@PLT
.L409:
	.loc 2 317 58 discriminator 4
	movl	-2992(%rbx), %eax
	movl	%eax, %esi
	movq	%r14, %rdi
	call	_ZNSolsEi@PLT
	movq	%rax, %r14
	.loc 2 317 66 is_stmt 1 discriminator 4
	movq	%r14, %rax
	testq	%r14, %r14
	je	.L410
	.loc 2 317 66 is_stmt 0 discriminator 5
	movq	%rax, %rdx
	andl	$7, %edx
	testq	%rdx, %rdx
	je	.L411
.L410:
	.loc 2 317 66
	movq	%rax, %rsi
	leaq	.Lubsan_data510(%rip), %rdi
	call	__ubsan_handle_type_mismatch_v1@PLT
.L411:
	.loc 2 317 66 discriminator 5
	movq	%r14, %rax
	testq	%r14, %r14
	je	.L412
	movq	%rax, %rdx
	andl	$7, %edx
	testq	%rdx, %rdx
	je	.L413
.L412:
	.loc 2 317 66
	movq	%rax, %rsi
	leaq	.Lubsan_data511(%rip), %rdi
	call	__ubsan_handle_type_mismatch_v1@PLT
.L413:
	.loc 2 317 66 discriminator 5
	movq	%r14, %rax
	movq	%rax, %rdx
	shrq	$3, %rdx
	addq	$2147450880, %rdx
	movzbl	(%rdx), %edx
	testb	%dl, %dl
	je	.L414
	.loc 2 317 66
	movq	%rax, %rdi
	call	__asan_report_load8@PLT
.L414:
	.loc 2 317 66 discriminator 5
	movq	(%r14), %rax
	movq	%rax, %rdx
	movabsq	$-8638671864419, %rax
	xorq	%rdx, %rax
	movq	%rax, %rcx
	movabsq	$-7070675565921424023, %rax
	imulq	%rcx, %rax
	movq	%rax, %rcx
	salq	$47, %rcx
	xorq	%rdx, %rax
	xorq	%rax, %rcx
	movq	%rcx, %rdx
	movabsq	$-7070675565921424023, %rax
	imulq	%rdx, %rax
	movq	%rax, %rdx
	salq	$47, %rdx
	xorq	%rax, %rdx
	movabsq	$-7070675565921424023, %rax
	imulq	%rdx, %rax
	movq	%rax, %rdx
	andl	$127, %edx
	leaq	0(,%rdx,8), %rcx
	leaq	__ubsan_vptr_type_cache(%rip), %rdx
	movq	(%rcx,%rdx), %rdx
	cmpq	%rax, %rdx
	je	.L415
	.loc 2 317 66
	movq	%rax, %rdx
	movq	%r14, %rsi
	leaq	.Lubsan_data512(%rip), %rdi
	call	__ubsan_handle_dynamic_type_cache_miss@PLT
.L415:
	.loc 2 317 66 discriminator 5
	movq	_ZSt4endlIcSt11char_traitsIcEERSt13basic_ostreamIT_T0_ES6_@GOTPCREL(%rip), %rax
	movq	%rax, %rsi
	movq	%r14, %rdi
	call	_ZNSolsEPFRSoS_E@PLT
	.loc 2 318 12 is_stmt 1 discriminator 5
	leaq	-2912(%rbx), %rax
	shrq	$3, %rax
	addq	$2147450880, %rax
	movb	$0, (%rax)
	.loc 2 318 33 discriminator 5
	leaq	-2992(%rbx), %rdx
	leaq	-3008(%rbx), %rcx
	movq	-3800(%rbp), %rax
	movq	%rcx, %rsi
	movq	%rax, %rdi
	call	_Z9resizeMapPPcRiS1_@PLT
	.loc 2 318 56 discriminator 5
	leaq	-2912(%rbx), %rdx
	movq	%rdx, %rcx
	shrq	$3, %rcx
	addq	$2147450880, %rcx
	movzbl	(%rcx), %ecx
	testb	%cl, %cl
	je	.L416
	.loc 2 318 56 is_stmt 0
	movq	%rdx, %rdi
	call	__asan_report_store8@PLT
.L416:
	.loc 2 318 56 discriminator 1
	movq	%rax, -2912(%rbx)
	.loc 2 319 11 is_stmt 1 discriminator 1
	leaq	_ZSt4cout(%rip), %rax
	movq	%rax, %rdx
	shrq	$3, %rdx
	addq	$2147450880, %rdx
	movzbl	(%rdx), %edx
	testb	%dl, %dl
	je	.L417
	.loc 2 319 11 is_stmt 0
	movq	%rax, %rdi
	call	__asan_report_load8@PLT
.L417:
	.loc 2 319 11 discriminator 1
	movq	_ZSt4cout(%rip), %rax
	movq	%rax, %rdx
	movabsq	$-8638671864419, %rax
	xorq	%rdx, %rax
	movq	%rax, %rcx
	movabsq	$-7070675565921424023, %rax
	imulq	%rcx, %rax
	movq	%rax, %rcx
	salq	$47, %rcx
	xorq	%rdx, %rax
	xorq	%rax, %rcx
	movq	%rcx, %rdx
	movabsq	$-7070675565921424023, %rax
	imulq	%rdx, %rax
	movq	%rax, %rdx
	salq	$47, %rdx
	xorq	%rax, %rdx
	movabsq	$-7070675565921424023, %rax
	imulq	%rdx, %rax
	movq	%rax, %rdx
	andl	$127, %edx
	leaq	0(,%rdx,8), %rcx
	leaq	__ubsan_vptr_type_cache(%rip), %rdx
	movq	(%rcx,%rdx), %rdx
	cmpq	%rax, %rdx
	je	.L418
	.loc 2 319 11
	movq	%rax, %rdx
	leaq	_ZSt4cout(%rip), %rsi
	leaq	.Lubsan_data513(%rip), %rdi
	call	__ubsan_handle_dynamic_type_cache_miss@PLT
.L418:
	.loc 2 319 11 discriminator 1
	movq	_ZSt4endlIcSt11char_traitsIcEERSt13basic_ostreamIT_T0_ES6_@GOTPCREL(%rip), %rax
	movq	%rax, %rsi
	leaq	_ZSt4cout(%rip), %rdi
	call	_ZNSolsEPFRSoS_E@PLT
	movq	%rax, %r14
	.loc 2 319 17 is_stmt 1 discriminator 1
	movq	%r14, %rax
	testq	%r14, %r14
	je	.L419
	movq	%rax, %rdx
	andl	$7, %edx
	testq	%rdx, %rdx
	je	.L420
.L419:
	.loc 2 319 17 is_stmt 0
	movq	%rax, %rsi
	leaq	.Lubsan_data514(%rip), %rdi
	call	__ubsan_handle_type_mismatch_v1@PLT
.L420:
	.loc 2 319 17 discriminator 1
	leaq	.LC50(%rip), %rsi
	movq	%r14, %rdi
	call	_ZStlsISt11char_traitsIcEERSt13basic_ostreamIcT_ES5_PKc@PLT
	movq	%rax, %r14
	.loc 2 319 35 is_stmt 1 discriminator 1
	movq	%r14, %rax
	testq	%r14, %r14
	je	.L421
	.loc 2 319 35 is_stmt 0 discriminator 2
	movq	%rax, %rdx
	andl	$7, %edx
	testq	%rdx, %rdx
	je	.L422
.L421:
	.loc 2 319 35
	movq	%rax, %rsi
	leaq	.Lubsan_data515(%rip), %rdi
	call	__ubsan_handle_type_mismatch_v1@PLT
.L422:
	.loc 2 319 35 discriminator 2
	movq	%r14, %rax
	testq	%r14, %r14
	je	.L423
	movq	%rax, %rdx
	andl	$7, %edx
	testq	%rdx, %rdx
	je	.L424
.L423:
	.loc 2 319 35
	movq	%rax, %rsi
	leaq	.Lubsan_data516(%rip), %rdi
	call	__ubsan_handle_type_mismatch_v1@PLT
.L424:
	.loc 2 319 35 discriminator 2
	movq	%r14, %rax
	movq	%rax, %rdx
	shrq	$3, %rdx
	addq	$2147450880, %rdx
	movzbl	(%rdx), %edx
	testb	%dl, %dl
	je	.L425
	.loc 2 319 35
	movq	%rax, %rdi
	call	__asan_report_load8@PLT
.L425:
	.loc 2 319 35 discriminator 2
	movq	(%r14), %rax
	movq	%rax, %rdx
	movabsq	$-8638671864419, %rax
	xorq	%rdx, %rax
	movq	%rax, %rcx
	movabsq	$-7070675565921424023, %rax
	imulq	%rcx, %rax
	movq	%rax, %rcx
	salq	$47, %rcx
	xorq	%rdx, %rax
	xorq	%rax, %rcx
	movq	%rcx, %rdx
	movabsq	$-7070675565921424023, %rax
	imulq	%rdx, %rax
	movq	%rax, %rdx
	salq	$47, %rdx
	xorq	%rax, %rdx
	movabsq	$-7070675565921424023, %rax
	imulq	%rdx, %rax
	movq	%rax, %rdx
	andl	$127, %edx
	leaq	0(,%rdx,8), %rcx
	leaq	__ubsan_vptr_type_cache(%rip), %rdx
	movq	(%rcx,%rdx), %rdx
	cmpq	%rax, %rdx
	je	.L426
	.loc 2 319 35
	movq	%rax, %rdx
	movq	%r14, %rsi
	leaq	.Lubsan_data517(%rip), %rdi
	call	__ubsan_handle_dynamic_type_cache_miss@PLT
.L426:
	.loc 2 319 43 is_stmt 1 discriminator 2
	leaq	-3008(%rbx), %rax
	movq	%rax, %rdx
	movq	%rdx, %rax
	shrq	$3, %rax
	addq	$2147450880, %rax
	movzbl	(%rax), %eax
	testb	%al, %al
	setne	%cl
	cmpb	$3, %al
	setle	%al
	andl	%ecx, %eax
	testb	%al, %al
	je	.L427
	.loc 2 319 43 is_stmt 0
	movq	%rdx, %rdi
	call	__asan_report_load4@PLT
.L427:
	.loc 2 319 43 discriminator 2
	movl	-3008(%rbx), %eax
	movl	%eax, %esi
	movq	%r14, %rdi
	call	_ZNSolsEi@PLT
	leaq	.LC49(%rip), %rsi
	movq	%rax, %rdi
	call	_ZStlsISt11char_traitsIcEERSt13basic_ostreamIcT_ES5_PKc@PLT
	movq	%rax, %r14
	.loc 2 319 57 is_stmt 1 discriminator 2
	movq	%r14, %rax
	testq	%r14, %r14
	je	.L428
	.loc 2 319 57 is_stmt 0 discriminator 4
	movq	%rax, %rdx
	andl	$7, %edx
	testq	%rdx, %rdx
	je	.L429
.L428:
	.loc 2 319 57
	movq	%rax, %rsi
	leaq	.Lubsan_data518(%rip), %rdi
	call	__ubsan_handle_type_mismatch_v1@PLT
.L429:
	.loc 2 319 57 discriminator 4
	movq	%r14, %rax
	testq	%r14, %r14
	je	.L430
	movq	%rax, %rdx
	andl	$7, %edx
	testq	%rdx, %rdx
	je	.L431
.L430:
	.loc 2 319 57
	movq	%rax, %rsi
	leaq	.Lubsan_data519(%rip), %rdi
	call	__ubsan_handle_type_mismatch_v1@PLT
.L431:
	.loc 2 319 57 discriminator 4
	movq	%r14, %rax
	movq	%rax, %rdx
	shrq	$3, %rdx
	addq	$2147450880, %rdx
	movzbl	(%rdx), %edx
	testb	%dl, %dl
	je	.L432
	.loc 2 319 57
	movq	%rax, %rdi
	call	__asan_report_load8@PLT
.L432:
	.loc 2 319 57 discriminator 4
	movq	(%r14), %rax
	movq	%rax, %rdx
	movabsq	$-8638671864419, %rax
	xorq	%rdx, %rax
	movq	%rax, %rcx
	movabsq	$-7070675565921424023, %rax
	imulq	%rcx, %rax
	movq	%rax, %rcx
	salq	$47, %rcx
	xorq	%rdx, %rax
	xorq	%rax, %rcx
	movq	%rcx, %rdx
	movabsq	$-7070675565921424023, %rax
	imulq	%rdx, %rax
	movq	%rax, %rdx
	salq	$47, %rdx
	xorq	%rax, %rdx
	movabsq	$-7070675565921424023, %rax
	imulq	%rdx, %rax
	movq	%rax, %rdx
	andl	$127, %edx
	leaq	0(,%rdx,8), %rcx
	leaq	__ubsan_vptr_type_cache(%rip), %rdx
	movq	(%rcx,%rdx), %rdx
	cmpq	%rax, %rdx
	je	.L433
	.loc 2 319 57
	movq	%rax, %rdx
	movq	%r14, %rsi
	leaq	.Lubsan_data520(%rip), %rdi
	call	__ubsan_handle_dynamic_type_cache_miss@PLT
.L433:
	.loc 2 319 57 discriminator 4
	leaq	-2992(%rbx), %rax
	movq	%rax, %rdx
	movq	%rdx, %rax
	shrq	$3, %rax
	addq	$2147450880, %rax
	movzbl	(%rax), %eax
	testb	%al, %al
	setne	%cl
	cmpb	$3, %al
	setle	%al
	andl	%ecx, %eax
	testb	%al, %al
	je	.L434
	.loc 2 319 57
	movq	%rdx, %rdi
	call	__asan_report_load4@PLT
.L434:
	.loc 2 319 57 discriminator 4
	movl	-2992(%rbx), %eax
	movl	%eax, %esi
	movq	%r14, %rdi
	call	_ZNSolsEi@PLT
	movq	%rax, %r14
	.loc 2 319 65 is_stmt 1 discriminator 4
	movq	%r14, %rax
	testq	%r14, %r14
	je	.L435
	.loc 2 319 65 is_stmt 0 discriminator 5
	movq	%rax, %rdx
	andl	$7, %edx
	testq	%rdx, %rdx
	je	.L436
.L435:
	.loc 2 319 65
	movq	%rax, %rsi
	leaq	.Lubsan_data521(%rip), %rdi
	call	__ubsan_handle_type_mismatch_v1@PLT
.L436:
	.loc 2 319 65 discriminator 5
	movq	%r14, %rax
	testq	%r14, %r14
	je	.L437
	movq	%rax, %rdx
	andl	$7, %edx
	testq	%rdx, %rdx
	je	.L438
.L437:
	.loc 2 319 65
	movq	%rax, %rsi
	leaq	.Lubsan_data522(%rip), %rdi
	call	__ubsan_handle_type_mismatch_v1@PLT
.L438:
	.loc 2 319 65 discriminator 5
	movq	%r14, %rax
	movq	%rax, %rdx
	shrq	$3, %rdx
	addq	$2147450880, %rdx
	movzbl	(%rdx), %edx
	testb	%dl, %dl
	je	.L439
	.loc 2 319 65
	movq	%rax, %rdi
	call	__asan_report_load8@PLT
.L439:
	.loc 2 319 65 discriminator 5
	movq	(%r14), %rax
	movq	%rax, %rdx
	movabsq	$-8638671864419, %rax
	xorq	%rdx, %rax
	movq	%rax, %rcx
	movabsq	$-7070675565921424023, %rax
	imulq	%rcx, %rax
	movq	%rax, %rcx
	salq	$47, %rcx
	xorq	%rdx, %rax
	xorq	%rax, %rcx
	movq	%rcx, %rdx
	movabsq	$-7070675565921424023, %rax
	imulq	%rdx, %rax
	movq	%rax, %rdx
	salq	$47, %rdx
	xorq	%rax, %rdx
	movabsq	$-7070675565921424023, %rax
	imulq	%rdx, %rax
	movq	%rax, %rdx
	andl	$127, %edx
	leaq	0(,%rdx,8), %rcx
	leaq	__ubsan_vptr_type_cache(%rip), %rdx
	movq	(%rcx,%rdx), %rdx
	cmpq	%rax, %rdx
	je	.L440
	.loc 2 319 65
	movq	%rax, %rdx
	movq	%r14, %rsi
	leaq	.Lubsan_data523(%rip), %rdi
	call	__ubsan_handle_dynamic_type_cache_miss@PLT
.L440:
	.loc 2 319 65 discriminator 5
	movq	_ZSt4endlIcSt11char_traitsIcEERSt13basic_ostreamIT_T0_ES6_@GOTPCREL(%rip), %rax
	movq	%rax, %rsi
	movq	%r14, %rdi
	call	_ZNSolsEPFRSoS_E@PLT
	.loc 2 320 14 is_stmt 1 discriminator 5
	leaq	-3008(%rbx), %rdx
	leaq	-2912(%rbx), %rax
	movq	%rdx, %rsi
	movq	%rax, %rdi
	call	_Z9deleteMapRPPcRi@PLT
	.loc 2 340 11 discriminator 5
	leaq	_ZSt4cout(%rip), %rax
	movq	%rax, %rdx
	shrq	$3, %rdx
	addq	$2147450880, %rdx
	movzbl	(%rdx), %edx
	testb	%dl, %dl
	je	.L441
	.loc 2 340 11 is_stmt 0
	movq	%rax, %rdi
	call	__asan_report_load8@PLT
.L441:
	movq	_ZSt4cout(%rip), %rax
	movq	%rax, %rdx
	movabsq	$-8638671864419, %rax
	xorq	%rdx, %rax
	movq	%rax, %rcx
	movabsq	$-7070675565921424023, %rax
	imulq	%rcx, %rax
	movq	%rax, %rcx
	salq	$47, %rcx
	xorq	%rdx, %rax
	xorq	%rax, %rcx
	movq	%rcx, %rdx
	movabsq	$-7070675565921424023, %rax
	imulq	%rdx, %rax
	movq	%rax, %rdx
	salq	$47, %rdx
	xorq	%rax, %rdx
	movabsq	$-7070675565921424023, %rax
	imulq	%rdx, %rax
	movq	%rax, %rdx
	andl	$127, %edx
	leaq	0(,%rdx,8), %rcx
	leaq	__ubsan_vptr_type_cache(%rip), %rdx
	movq	(%rcx,%rdx), %rdx
	cmpq	%rax, %rdx
	je	.L442
	movq	%rax, %rdx
	leaq	_ZSt4cout(%rip), %rsi
	leaq	.Lubsan_data524(%rip), %rdi
	call	__ubsan_handle_dynamic_type_cache_miss@PLT
.L442:
	movq	_ZSt4endlIcSt11char_traitsIcEERSt13basic_ostreamIT_T0_ES6_@GOTPCREL(%rip), %rax
	movq	%rax, %rsi
	leaq	_ZSt4cout(%rip), %rdi
	call	_ZNSolsEPFRSoS_E@PLT
	movq	%rax, %r14
	.loc 2 340 17 is_stmt 1
	movq	%r14, %rax
	testq	%r14, %r14
	je	.L443
	.loc 2 340 17 is_stmt 0 discriminator 1
	movq	%rax, %rdx
	andl	$7, %edx
	testq	%rdx, %rdx
	je	.L444
.L443:
	.loc 2 340 17
	movq	%rax, %rsi
	leaq	.Lubsan_data525(%rip), %rdi
	call	__ubsan_handle_type_mismatch_v1@PLT
.L444:
	.loc 2 340 17 discriminator 1
	leaq	.LC51(%rip), %rsi
	movq	%r14, %rdi
	call	_ZStlsISt11char_traitsIcEERSt13basic_ostreamIcT_ES5_PKc@PLT
	movq	%rax, %r14
	.loc 2 340 48 is_stmt 1 discriminator 1
	movq	%r14, %rax
	testq	%r14, %r14
	je	.L445
	.loc 2 340 48 is_stmt 0 discriminator 2
	movq	%rax, %rdx
	andl	$7, %edx
	testq	%rdx, %rdx
	je	.L446
.L445:
	.loc 2 340 48
	movq	%rax, %rsi
	leaq	.Lubsan_data526(%rip), %rdi
	call	__ubsan_handle_type_mismatch_v1@PLT
.L446:
	.loc 2 340 48 discriminator 2
	movq	%r14, %rax
	testq	%r14, %r14
	je	.L447
	movq	%rax, %rdx
	andl	$7, %edx
	testq	%rdx, %rdx
	je	.L448
.L447:
	.loc 2 340 48
	movq	%rax, %rsi
	leaq	.Lubsan_data527(%rip), %rdi
	call	__ubsan_handle_type_mismatch_v1@PLT
.L448:
	.loc 2 340 48 discriminator 2
	movq	%r14, %rax
	movq	%rax, %rdx
	shrq	$3, %rdx
	addq	$2147450880, %rdx
	movzbl	(%rdx), %edx
	testb	%dl, %dl
	je	.L449
	.loc 2 340 48
	movq	%rax, %rdi
	call	__asan_report_load8@PLT
.L449:
	.loc 2 340 48 discriminator 2
	movq	(%r14), %rax
	movq	%rax, %rdx
	movabsq	$-8638671864419, %rax
	xorq	%rdx, %rax
	movq	%rax, %rcx
	movabsq	$-7070675565921424023, %rax
	imulq	%rcx, %rax
	movq	%rax, %rcx
	salq	$47, %rcx
	xorq	%rdx, %rax
	xorq	%rax, %rcx
	movq	%rcx, %rdx
	movabsq	$-7070675565921424023, %rax
	imulq	%rdx, %rax
	movq	%rax, %rdx
	salq	$47, %rdx
	xorq	%rax, %rdx
	movabsq	$-7070675565921424023, %rax
	imulq	%rdx, %rax
	movq	%rax, %rdx
	andl	$127, %edx
	leaq	0(,%rdx,8), %rcx
	leaq	__ubsan_vptr_type_cache(%rip), %rdx
	movq	(%rcx,%rdx), %rdx
	cmpq	%rax, %rdx
	je	.L450
	.loc 2 340 48
	movq	%rax, %rdx
	movq	%r14, %rsi
	leaq	.Lubsan_data528(%rip), %rdi
	call	__ubsan_handle_dynamic_type_cache_miss@PLT
.L450:
	.loc 2 340 48 discriminator 2
	movq	_ZSt4endlIcSt11char_traitsIcEERSt13basic_ostreamIT_T0_ES6_@GOTPCREL(%rip), %rax
	movq	%rax, %rsi
	movq	%r14, %rdi
	call	_ZNSolsEPFRSoS_E@PLT
.LEHE60:
	.loc 2 341 23 is_stmt 1 discriminator 2
	leaq	-1568(%rbx), %rax
	shrq	$3, %rax
	addq	$2147450880, %rax
	movl	$0, (%rax)
	leaq	-3392(%rbx), %rax
	shrq	$3, %rax
	addq	$2147450880, %rax
	movb	$1, (%rax)
	leaq	-3392(%rbx), %rax
	movq	%rax, %rdi
	call	_ZNSaIcEC1Ev@PLT
	leaq	-3392(%rbx), %rdx
	leaq	-1568(%rbx), %rax
	leaq	.LC52(%rip), %rsi
	movq	%rax, %rdi
.LEHB61:
	call	_ZNSt7__cxx1112basic_stringIcSt11char_traitsIcESaIcEEC1IS3_EEPKcRKS3_
.LEHE61:
	leaq	-1568(%rbx), %r14
	movq	%r14, %rax
	testq	%r14, %r14
	je	.L451
	movq	%rax, %rdx
	andl	$7, %edx
	testq	%rdx, %rdx
	je	.L452
.L451:
	.loc 2 341 23 is_stmt 0
	movq	%rax, %rsi
	leaq	.Lubsan_data529(%rip), %rdi
	call	__ubsan_handle_type_mismatch_v1@PLT
.L452:
	.loc 2 341 23 discriminator 2
	leaq	-2880(%rbx), %rcx
	leaq	-2992(%rbx), %rdx
	leaq	-3008(%rbx), %rax
	movq	%rax, %rsi
	movq	%r14, %rdi
.LEHB62:
	call	_Z9loadLevelRKNSt7__cxx1112basic_stringIcSt11char_traitsIcESaIcEEERiS7_R6Player@PLT
.LEHE62:
	movq	%rax, -3800(%rbp)
	leaq	-1568(%rbx), %rax
	movq	%rax, %rdi
	call	_ZNSt7__cxx1112basic_stringIcSt11char_traitsIcESaIcEED1Ev@PLT
	leaq	-1568(%rbx), %rax
	shrq	$3, %rax
	addq	$2147450880, %rax
	movl	$-117901064, (%rax)
	leaq	-3392(%rbx), %rax
	movq	%rax, %rdi
	call	_ZNSaIcED1Ev@PLT
	leaq	-3392(%rbx), %rax
	shrq	$3, %rax
	addq	$2147450880, %rax
	movb	$-8, (%rax)
	.loc 2 342 11 is_stmt 1 discriminator 2
	leaq	_ZSt4cout(%rip), %rax
	movq	%rax, %rdx
	shrq	$3, %rdx
	addq	$2147450880, %rdx
	movzbl	(%rdx), %edx
	testb	%dl, %dl
	je	.L453
	.loc 2 342 11 is_stmt 0
	movq	%rax, %rdi
	call	__asan_report_load8@PLT
.L453:
	.loc 2 342 11 discriminator 4
	movq	_ZSt4cout(%rip), %rax
	movq	%rax, %rdx
	movabsq	$-8638671864419, %rax
	xorq	%rdx, %rax
	movq	%rax, %rcx
	movabsq	$-7070675565921424023, %rax
	imulq	%rcx, %rax
	movq	%rax, %rcx
	salq	$47, %rcx
	xorq	%rdx, %rax
	xorq	%rax, %rcx
	movq	%rcx, %rdx
	movabsq	$-7070675565921424023, %rax
	imulq	%rdx, %rax
	movq	%rax, %rdx
	salq	$47, %rdx
	xorq	%rax, %rdx
	movabsq	$-7070675565921424023, %rax
	imulq	%rdx, %rax
	movq	%rax, %rdx
	andl	$127, %edx
	leaq	0(,%rdx,8), %rcx
	leaq	__ubsan_vptr_type_cache(%rip), %rdx
	movq	(%rcx,%rdx), %rdx
	cmpq	%rax, %rdx
	je	.L454
	.loc 2 342 11
	movq	%rax, %rdx
	leaq	_ZSt4cout(%rip), %rsi
	leaq	.Lubsan_data530(%rip), %rdi
	call	__ubsan_handle_dynamic_type_cache_miss@PLT
.L454:
	.loc 2 342 11 discriminator 4
	movq	_ZSt4endlIcSt11char_traitsIcEERSt13basic_ostreamIT_T0_ES6_@GOTPCREL(%rip), %rax
	movq	%rax, %rsi
	leaq	_ZSt4cout(%rip), %rdi
.LEHB63:
	call	_ZNSolsEPFRSoS_E@PLT
	movq	%rax, %r14
	.loc 2 342 17 is_stmt 1 discriminator 4
	movq	%r14, %rax
	testq	%r14, %r14
	je	.L455
	.loc 2 342 17 is_stmt 0 discriminator 1
	movq	%rax, %rdx
	andl	$7, %edx
	testq	%rdx, %rdx
	je	.L456
.L455:
	.loc 2 342 17
	movq	%rax, %rsi
	leaq	.Lubsan_data531(%rip), %rdi
	call	__ubsan_handle_type_mismatch_v1@PLT
.L456:
	.loc 2 342 17 discriminator 1
	leaq	.LC48(%rip), %rsi
	movq	%r14, %rdi
	call	_ZStlsISt11char_traitsIcEERSt13basic_ostreamIcT_ES5_PKc@PLT
	movq	%rax, %r14
	.loc 2 342 36 is_stmt 1 discriminator 1
	movq	%r14, %rax
	testq	%r14, %r14
	je	.L457
	.loc 2 342 36 is_stmt 0 discriminator 2
	movq	%rax, %rdx
	andl	$7, %edx
	testq	%rdx, %rdx
	je	.L458
.L457:
	.loc 2 342 36
	movq	%rax, %rsi
	leaq	.Lubsan_data532(%rip), %rdi
	call	__ubsan_handle_type_mismatch_v1@PLT
.L458:
	.loc 2 342 36 discriminator 2
	movq	%r14, %rax
	testq	%r14, %r14
	je	.L459
	movq	%rax, %rdx
	andl	$7, %edx
	testq	%rdx, %rdx
	je	.L460
.L459:
	.loc 2 342 36
	movq	%rax, %rsi
	leaq	.Lubsan_data533(%rip), %rdi
	call	__ubsan_handle_type_mismatch_v1@PLT
.L460:
	.loc 2 342 36 discriminator 2
	movq	%r14, %rax
	movq	%rax, %rdx
	shrq	$3, %rdx
	addq	$2147450880, %rdx
	movzbl	(%rdx), %edx
	testb	%dl, %dl
	je	.L461
	.loc 2 342 36
	movq	%rax, %rdi
	call	__asan_report_load8@PLT
.L461:
	.loc 2 342 36 discriminator 2
	movq	(%r14), %rax
	movq	%rax, %rdx
	movabsq	$-8638671864419, %rax
	xorq	%rdx, %rax
	movq	%rax, %rcx
	movabsq	$-7070675565921424023, %rax
	imulq	%rcx, %rax
	movq	%rax, %rcx
	salq	$47, %rcx
	xorq	%rdx, %rax
	xorq	%rax, %rcx
	movq	%rcx, %rdx
	movabsq	$-7070675565921424023, %rax
	imulq	%rdx, %rax
	movq	%rax, %rdx
	salq	$47, %rdx
	xorq	%rax, %rdx
	movabsq	$-7070675565921424023, %rax
	imulq	%rdx, %rax
	movq	%rax, %rdx
	andl	$127, %edx
	leaq	0(,%rdx,8), %rcx
	leaq	__ubsan_vptr_type_cache(%rip), %rdx
	movq	(%rcx,%rdx), %rdx
	cmpq	%rax, %rdx
	je	.L462
	.loc 2 342 36
	movq	%rax, %rdx
	movq	%r14, %rsi
	leaq	.Lubsan_data534(%rip), %rdi
	call	__ubsan_handle_dynamic_type_cache_miss@PLT
.L462:
	.loc 2 342 44 is_stmt 1 discriminator 2
	leaq	-3008(%rbx), %rax
	movq	%rax, %rdx
	movq	%rdx, %rax
	shrq	$3, %rax
	addq	$2147450880, %rax
	movzbl	(%rax), %eax
	testb	%al, %al
	setne	%cl
	cmpb	$3, %al
	setle	%al
	andl	%ecx, %eax
	testb	%al, %al
	je	.L463
	.loc 2 342 44 is_stmt 0
	movq	%rdx, %rdi
	call	__asan_report_load4@PLT
.L463:
	.loc 2 342 44 discriminator 2
	movl	-3008(%rbx), %eax
	movl	%eax, %esi
	movq	%r14, %rdi
	call	_ZNSolsEi@PLT
	leaq	.LC49(%rip), %rsi
	movq	%rax, %rdi
	call	_ZStlsISt11char_traitsIcEERSt13basic_ostreamIcT_ES5_PKc@PLT
	movq	%rax, %r14
	.loc 2 342 58 is_stmt 1 discriminator 2
	movq	%r14, %rax
	testq	%r14, %r14
	je	.L464
	.loc 2 342 58 is_stmt 0 discriminator 4
	movq	%rax, %rdx
	andl	$7, %edx
	testq	%rdx, %rdx
	je	.L465
.L464:
	.loc 2 342 58
	movq	%rax, %rsi
	leaq	.Lubsan_data535(%rip), %rdi
	call	__ubsan_handle_type_mismatch_v1@PLT
.L465:
	.loc 2 342 58 discriminator 4
	movq	%r14, %rax
	testq	%r14, %r14
	je	.L466
	movq	%rax, %rdx
	andl	$7, %edx
	testq	%rdx, %rdx
	je	.L467
.L466:
	.loc 2 342 58
	movq	%rax, %rsi
	leaq	.Lubsan_data536(%rip), %rdi
	call	__ubsan_handle_type_mismatch_v1@PLT
.L467:
	.loc 2 342 58 discriminator 4
	movq	%r14, %rax
	movq	%rax, %rdx
	shrq	$3, %rdx
	addq	$2147450880, %rdx
	movzbl	(%rdx), %edx
	testb	%dl, %dl
	je	.L468
	.loc 2 342 58
	movq	%rax, %rdi
	call	__asan_report_load8@PLT
.L468:
	.loc 2 342 58 discriminator 4
	movq	(%r14), %rax
	movq	%rax, %rdx
	movabsq	$-8638671864419, %rax
	xorq	%rdx, %rax
	movq	%rax, %rcx
	movabsq	$-7070675565921424023, %rax
	imulq	%rcx, %rax
	movq	%rax, %rcx
	salq	$47, %rcx
	xorq	%rdx, %rax
	xorq	%rax, %rcx
	movq	%rcx, %rdx
	movabsq	$-7070675565921424023, %rax
	imulq	%rdx, %rax
	movq	%rax, %rdx
	salq	$47, %rdx
	xorq	%rax, %rdx
	movabsq	$-7070675565921424023, %rax
	imulq	%rdx, %rax
	movq	%rax, %rdx
	andl	$127, %edx
	leaq	0(,%rdx,8), %rcx
	leaq	__ubsan_vptr_type_cache(%rip), %rdx
	movq	(%rcx,%rdx), %rdx
	cmpq	%rax, %rdx
	je	.L469
	.loc 2 342 58
	movq	%rax, %rdx
	movq	%r14, %rsi
	leaq	.Lubsan_data537(%rip), %rdi
	call	__ubsan_handle_dynamic_type_cache_miss@PLT
.L469:
	.loc 2 342 58 discriminator 4
	leaq	-2992(%rbx), %rax
	movq	%rax, %rdx
	movq	%rdx, %rax
	shrq	$3, %rax
	addq	$2147450880, %rax
	movzbl	(%rax), %eax
	testb	%al, %al
	setne	%cl
	cmpb	$3, %al
	setle	%al
	andl	%ecx, %eax
	testb	%al, %al
	je	.L470
	.loc 2 342 58
	movq	%rdx, %rdi
	call	__asan_report_load4@PLT
.L470:
	.loc 2 342 58 discriminator 4
	movl	-2992(%rbx), %eax
	movl	%eax, %esi
	movq	%r14, %rdi
	call	_ZNSolsEi@PLT
	movq	%rax, %r14
	.loc 2 342 66 is_stmt 1 discriminator 4
	movq	%r14, %rax
	testq	%r14, %r14
	je	.L471
	.loc 2 342 66 is_stmt 0 discriminator 5
	movq	%rax, %rdx
	andl	$7, %edx
	testq	%rdx, %rdx
	je	.L472
.L471:
	.loc 2 342 66
	movq	%rax, %rsi
	leaq	.Lubsan_data538(%rip), %rdi
	call	__ubsan_handle_type_mismatch_v1@PLT
.L472:
	.loc 2 342 66 discriminator 5
	movq	%r14, %rax
	testq	%r14, %r14
	je	.L473
	movq	%rax, %rdx
	andl	$7, %edx
	testq	%rdx, %rdx
	je	.L474
.L473:
	.loc 2 342 66
	movq	%rax, %rsi
	leaq	.Lubsan_data539(%rip), %rdi
	call	__ubsan_handle_type_mismatch_v1@PLT
.L474:
	.loc 2 342 66 discriminator 5
	movq	%r14, %rax
	movq	%rax, %rdx
	shrq	$3, %rdx
	addq	$2147450880, %rdx
	movzbl	(%rdx), %edx
	testb	%dl, %dl
	je	.L475
	.loc 2 342 66
	movq	%rax, %rdi
	call	__asan_report_load8@PLT
.L475:
	.loc 2 342 66 discriminator 5
	movq	(%r14), %rax
	movq	%rax, %rdx
	movabsq	$-8638671864419, %rax
	xorq	%rdx, %rax
	movq	%rax, %rcx
	movabsq	$-7070675565921424023, %rax
	imulq	%rcx, %rax
	movq	%rax, %rcx
	salq	$47, %rcx
	xorq	%rdx, %rax
	xorq	%rax, %rcx
	movq	%rcx, %rdx
	movabsq	$-7070675565921424023, %rax
	imulq	%rdx, %rax
	movq	%rax, %rdx
	salq	$47, %rdx
	xorq	%rax, %rdx
	movabsq	$-7070675565921424023, %rax
	imulq	%rdx, %rax
	movq	%rax, %rdx
	andl	$127, %edx
	leaq	0(,%rdx,8), %rcx
	leaq	__ubsan_vptr_type_cache(%rip), %rdx
	movq	(%rcx,%rdx), %rdx
	cmpq	%rax, %rdx
	je	.L476
	.loc 2 342 66
	movq	%rax, %rdx
	movq	%r14, %rsi
	leaq	.Lubsan_data540(%rip), %rdi
	call	__ubsan_handle_dynamic_type_cache_miss@PLT
.L476:
	.loc 2 342 66 discriminator 5
	movq	_ZSt4endlIcSt11char_traitsIcEERSt13basic_ostreamIT_T0_ES6_@GOTPCREL(%rip), %rax
	movq	%rax, %rsi
	movq	%r14, %rdi
	call	_ZNSolsEPFRSoS_E@PLT
	.loc 2 343 26 is_stmt 1 discriminator 5
	leaq	-2992(%rbx), %rdx
	leaq	-3008(%rbx), %rcx
	movq	-3800(%rbp), %rax
	movq	%rcx, %rsi
	movq	%rax, %rdi
	call	_Z9resizeMapPPcRiS1_@PLT
	.loc 2 343 15 discriminator 5
	leaq	-2912(%rbx), %rdx
	movq	%rdx, %rcx
	shrq	$3, %rcx
	addq	$2147450880, %rcx
	movzbl	(%rcx), %ecx
	testb	%cl, %cl
	je	.L477
	.loc 2 343 15 is_stmt 0
	movq	%rdx, %rdi
	call	__asan_report_store8@PLT
.L477:
	.loc 2 343 15 discriminator 1
	movq	%rax, -2912(%rbx)
	.loc 2 344 11 is_stmt 1 discriminator 1
	leaq	_ZSt4cout(%rip), %rax
	movq	%rax, %rdx
	shrq	$3, %rdx
	addq	$2147450880, %rdx
	movzbl	(%rdx), %edx
	testb	%dl, %dl
	je	.L478
	.loc 2 344 11 is_stmt 0
	movq	%rax, %rdi
	call	__asan_report_load8@PLT
.L478:
	.loc 2 344 11 discriminator 1
	movq	_ZSt4cout(%rip), %rax
	movq	%rax, %rdx
	movabsq	$-8638671864419, %rax
	xorq	%rdx, %rax
	movq	%rax, %rcx
	movabsq	$-7070675565921424023, %rax
	imulq	%rcx, %rax
	movq	%rax, %rcx
	salq	$47, %rcx
	xorq	%rdx, %rax
	xorq	%rax, %rcx
	movq	%rcx, %rdx
	movabsq	$-7070675565921424023, %rax
	imulq	%rdx, %rax
	movq	%rax, %rdx
	salq	$47, %rdx
	xorq	%rax, %rdx
	movabsq	$-7070675565921424023, %rax
	imulq	%rdx, %rax
	movq	%rax, %rdx
	andl	$127, %edx
	leaq	0(,%rdx,8), %rcx
	leaq	__ubsan_vptr_type_cache(%rip), %rdx
	movq	(%rcx,%rdx), %rdx
	cmpq	%rax, %rdx
	je	.L479
	.loc 2 344 11
	movq	%rax, %rdx
	leaq	_ZSt4cout(%rip), %rsi
	leaq	.Lubsan_data541(%rip), %rdi
	call	__ubsan_handle_dynamic_type_cache_miss@PLT
.L479:
	.loc 2 344 11 discriminator 1
	movq	_ZSt4endlIcSt11char_traitsIcEERSt13basic_ostreamIT_T0_ES6_@GOTPCREL(%rip), %rax
	movq	%rax, %rsi
	leaq	_ZSt4cout(%rip), %rdi
	call	_ZNSolsEPFRSoS_E@PLT
	movq	%rax, %r14
	.loc 2 344 17 is_stmt 1 discriminator 1
	movq	%r14, %rax
	testq	%r14, %r14
	je	.L480
	movq	%rax, %rdx
	andl	$7, %edx
	testq	%rdx, %rdx
	je	.L481
.L480:
	.loc 2 344 17 is_stmt 0
	movq	%rax, %rsi
	leaq	.Lubsan_data542(%rip), %rdi
	call	__ubsan_handle_type_mismatch_v1@PLT
.L481:
	.loc 2 344 17 discriminator 1
	leaq	.LC50(%rip), %rsi
	movq	%r14, %rdi
	call	_ZStlsISt11char_traitsIcEERSt13basic_ostreamIcT_ES5_PKc@PLT
	movq	%rax, %r14
	.loc 2 344 35 is_stmt 1 discriminator 1
	movq	%r14, %rax
	testq	%r14, %r14
	je	.L482
	.loc 2 344 35 is_stmt 0 discriminator 2
	movq	%rax, %rdx
	andl	$7, %edx
	testq	%rdx, %rdx
	je	.L483
.L482:
	.loc 2 344 35
	movq	%rax, %rsi
	leaq	.Lubsan_data543(%rip), %rdi
	call	__ubsan_handle_type_mismatch_v1@PLT
.L483:
	.loc 2 344 35 discriminator 2
	movq	%r14, %rax
	testq	%r14, %r14
	je	.L484
	movq	%rax, %rdx
	andl	$7, %edx
	testq	%rdx, %rdx
	je	.L485
.L484:
	.loc 2 344 35
	movq	%rax, %rsi
	leaq	.Lubsan_data544(%rip), %rdi
	call	__ubsan_handle_type_mismatch_v1@PLT
.L485:
	.loc 2 344 35 discriminator 2
	movq	%r14, %rax
